
A1200HID_USB.elf:     file format elf32-littleriscv
A1200HID_USB.elf
architecture: riscv:rv32, flags 0x00000112:
EXEC_P, HAS_SYMS, D_PAGED
start address 0x00000000

Program Header:
    LOAD off    0x00001000 vaddr 0x00000000 paddr 0x00000000 align 2**12
         filesz 0x00005f74 memsz 0x00005f74 flags r-x
    LOAD off    0x00007000 vaddr 0x20000000 paddr 0x00005f74 align 2**12
         filesz 0x000000f0 memsz 0x00001c28 flags rw-
    LOAD off    0x00007800 vaddr 0x20004800 paddr 0x20004800 align 2**12
         filesz 0x00000000 memsz 0x00000800 flags rw-

Sections:
Idx Name          Size      VMA       LMA       File off  Algn
  0 .init         00000038  00000000  00000000  00001000  2**1
                  CONTENTS, ALLOC, LOAD, READONLY, CODE
  1 .vector       00000108  00000038  00000038  00001038  2**1
                  CONTENTS, ALLOC, LOAD, READONLY, CODE
  2 .text         00005e34  00000140  00000140  00001140  2**2
                  CONTENTS, ALLOC, LOAD, READONLY, CODE
  3 .fini         00000000  00005f74  00005f74  000070f0  2**0
                  CONTENTS, ALLOC, LOAD, CODE
  4 .dalign       00000000  20000000  20000000  000070f0  2**0
                  CONTENTS
  5 .dlalign      00000000  00005f74  00005f74  000070f0  2**0
                  CONTENTS
  6 .data         000000f0  20000000  00005f74  00007000  2**2
                  CONTENTS, ALLOC, LOAD, DATA
  7 .bss          00001b38  200000f0  00006064  000070f0  2**2
                  ALLOC
  8 .stack        00000800  20004800  20004800  00007800  2**0
                  ALLOC
  9 .debug_info   0001f7ed  00000000  00000000  000070f0  2**0
                  CONTENTS, READONLY, DEBUGGING
 10 .debug_abbrev 00004a3e  00000000  00000000  000268dd  2**0
                  CONTENTS, READONLY, DEBUGGING
 11 .debug_loc    00006bbe  00000000  00000000  0002b31b  2**0
                  CONTENTS, READONLY, DEBUGGING
 12 .debug_aranges 00000ab0  00000000  00000000  00031ee0  2**3
                  CONTENTS, READONLY, DEBUGGING
 13 .debug_ranges 00000b00  00000000  00000000  00032990  2**3
                  CONTENTS, READONLY, DEBUGGING
 14 .debug_line   00013cef  00000000  00000000  00033490  2**0
                  CONTENTS, READONLY, DEBUGGING
 15 .debug_str    00003c89  00000000  00000000  0004717f  2**0
                  CONTENTS, READONLY, DEBUGGING
 16 .comment      00000033  00000000  00000000  0004ae08  2**0
                  CONTENTS, READONLY
 17 .debug_frame  00002280  00000000  00000000  0004ae3c  2**2
                  CONTENTS, READONLY, DEBUGGING
 18 .stab         00000084  00000000  00000000  0004d0bc  2**2
                  CONTENTS, READONLY, DEBUGGING
 19 .stabstr      00000117  00000000  00000000  0004d140  2**0
                  CONTENTS, READONLY, DEBUGGING
SYMBOL TABLE:
00000000 l    d  .init	00000000 .init
00000038 l    d  .vector	00000000 .vector
00000140 l    d  .text	00000000 .text
00005f74 l    d  .fini	00000000 .fini
20000000 l    d  .dalign	00000000 .dalign
00005f74 l    d  .dlalign	00000000 .dlalign
20000000 l    d  .data	00000000 .data
200000f0 l    d  .bss	00000000 .bss
20004800 l    d  .stack	00000000 .stack
00000000 l    d  .debug_info	00000000 .debug_info
00000000 l    d  .debug_abbrev	00000000 .debug_abbrev
00000000 l    d  .debug_loc	00000000 .debug_loc
00000000 l    d  .debug_aranges	00000000 .debug_aranges
00000000 l    d  .debug_ranges	00000000 .debug_ranges
00000000 l    d  .debug_line	00000000 .debug_line
00000000 l    d  .debug_str	00000000 .debug_str
00000000 l    d  .comment	00000000 .comment
00000000 l    d  .debug_frame	00000000 .debug_frame
00000000 l    d  .stab	00000000 .stab
00000000 l    d  .stabstr	00000000 .stabstr
00000000 l    df *ABS*	00000000 ./Startup/startup_ch32v20x_D6.o
00000038 l       .vector	00000000 _vector_base
00000000 l    df *ABS*	00000000 app_km.c
00000000 l    df *ABS*	00000000 ch32v20x_usbfs_host.c
00001c62 l     F .text	00000026 USBFSH_SetSelfSpeed.part.0
20000084 l     O .data	00000008 SetupClearEndpStall
2000008c l     O .data	00000008 SetupGetCfgDesc
20000094 l     O .data	00000008 SetupGetDevDesc
2000009c l     O .data	00000008 SetupGetStrDesc
200000a4 l     O .data	00000008 SetupSetAddr
200000ac l     O .data	00000008 SetupSetConfig
00000000 l    df *ABS*	00000000 usb_gamepad.c
20001b2c l     O .bss	00000040 gamepad_report_data
00000000 l    df *ABS*	00000000 usb_hid_reportparser.c
00000000 l    df *ABS*	00000000 usb_host_hid.c
200000b4 l     O .data	00000008 SetupGetHidDes
200000bc l     O .data	00000008 SetupSetReport
200000c4 l     O .data	00000008 SetupSetidle
00000000 l    df *ABS*	00000000 usb_host_hub.c
200000cc l     O .data	00000008 ClearPortFeature
200000d4 l     O .data	00000008 GetHubDescr
200000dc l     O .data	00000008 GetPortStatus
200000e4 l     O .data	00000008 SetPortFeature
00000000 l    df *ABS*	00000000 usb_keyboard.c
00005c68 l     O .text	00000020 imp_0_key_array
00005c88 l     O .text	00000020 imp_0_lalt
00005ca8 l     O .text	00000020 imp_0_lctrl
00005cc8 l     O .text	00000020 imp_0_lgui
00005ce8 l     O .text	00000020 imp_0_lshift
00005d08 l     O .text	00000020 imp_0_ralt
00005d28 l     O .text	00000020 imp_0_rctrl
00005d48 l     O .text	00000020 imp_0_rgui
00005d68 l     O .text	00000020 imp_0_rshift
00000000 l    df *ABS*	00000000 usb_mouse.c
00000000 l    df *ABS*	00000000 ch32v20x_it.c
00000000 l    df *ABS*	00000000 gamepad.c
00000000 l    df *ABS*	00000000 gpio.c
00000000 l    df *ABS*	00000000 keyboard.c
00002e68 l     F .text	00000028 scancode_to_amiga
00002e90 l     F .text	0000017e amikb_send
20001b88 l     O .bss	0000000f prevkeycode
00005d88 l     O .text	000000e0 scancodeamiga
20000104 l     O .bss	00000001 capslk
20000106 l     O .bss	00000001 numlk
20000107 l     O .bss	00000001 scrolllk
20000070 l     O .data	00000001 prev_keycode
00000000 l    df *ABS*	00000000 main.c
00000000 l    df *ABS*	00000000 mouse.c
00000000 l    df *ABS*	00000000 system_ch32v20x.c
00000000 l    df *ABS*	00000000 tim.c
00000000 l    df *ABS*	00000000 utils.c
00000000 l    df *ABS*	00000000 ch32v20x_exti.c
00000000 l    df *ABS*	00000000 ch32v20x_gpio.c
00000000 l    df *ABS*	00000000 ch32v20x_misc.c
00000000 l    df *ABS*	00000000 ch32v20x_rcc.c
20000000 l     O .data	00000010 APBAHBPrescTable
20000078 l     O .data	00000004 ADCPrescTable
00000000 l    df *ABS*	00000000 ch32v20x_tim.c
00000000 l    df *ABS*	00000000 ch32v20x_usart.c
00000000 l    df *ABS*	00000000 debug.c
20000118 l     O .bss	00000002 p_ms
2000011a l     O .bss	00000001 p_us
2000007c l     O .data	00000004 curbrk.4579
00000000 l    df *ABS*	00000000 memchr.c
00000000 l    df *ABS*	00000000 memcpy.c
00000000 l    df *ABS*	00000000 printf.c
00000000 l    df *ABS*	00000000 puts.c
00000000 l    df *ABS*	00000000 wbuf.c
00000000 l    df *ABS*	00000000 wsetup.c
00000000 l    df *ABS*	00000000 fflush.c
00000000 l    df *ABS*	00000000 findfp.c
00004a86 l     F .text	00000066 std
00000000 l    df *ABS*	00000000 fwalk.c
00000000 l    df *ABS*	00000000 makebuf.c
00000000 l    df *ABS*	00000000 nano-mallocr.c
00000000 l    df *ABS*	00000000 nano-mallocr.c
00000000 l    df *ABS*	00000000 nano-vfprintf.c
00004f18 l     F .text	00000028 __sfputc_r
00000000 l    df *ABS*	00000000 nano-vfprintf_i.c
00000000 l    df *ABS*	00000000 sbrkr.c
00000000 l    df *ABS*	00000000 stdio.c
00000000 l    df *ABS*	00000000 writer.c
00000000 l    df *ABS*	00000000 closer.c
00000000 l    df *ABS*	00000000 fstatr.c
00000000 l    df *ABS*	00000000 isattyr.c
00000000 l    df *ABS*	00000000 lseekr.c
00000000 l    df *ABS*	00000000 mlock.c
00000000 l    df *ABS*	00000000 readr.c
00000000 l    df *ABS*	00000000 close.c
00000000 l    df *ABS*	00000000 fstat.c
00000000 l    df *ABS*	00000000 isatty.c
00000000 l    df *ABS*	00000000 lseek.c
00000000 l    df *ABS*	00000000 read.c
00000000 l    df *ABS*	00000000 impure.c
20000010 l     O .data	00000060 impure_data
00000000 l    df *ABS*	00000000 reent.c
00003d96  w      .text	00000000 EXTI2_IRQHandler
00005734 g     F .text	00000030 _isatty_r
200000f4 g     O .bss	00000008 keybd_report_data
00004658 g     F .text	000000d4 _puts_r
00005764 g     F .text	00000034 _lseek_r
00004618 g     F .text	00000040 printf
20000870 g       .data	00000000 __global_pointer$
00000148 g     F .text	00000028 .hidden __riscv_save_8
00003dbc  w      .text	00000000 TIM1_CC_IRQHandler
00005666 g     F .text	00000030 __sseek
00004b3c g     F .text	0000006c __sinit
00004738 g     F .text	000000bc __swbuf_r
00002c9e g     F .text	00000002 HardFault_Handler
00004af6 g     F .text	00000046 __sfmoreglue
0000579a g     F .text	00000002 __malloc_unlock
00002222 g     F .text	00000026 USBFSH_ClearEndpStall
20001b6c g     O .bss	0000000f keybd_info
00000194 g     F .text	0000000c .hidden __riscv_restore_3
00000f92 g     F .text	0000002e HUB_CheckPortSpeed
00003d82  w      .text	00000000 SysTick_Handler
00004082 g     F .text	000000a6 NVIC_Init
00003c4e g     F .text	00000060 FifoWrite
00002290 g     F .text	00000040 USBFSH_SendEndpData
00003d88  w      .text	00000000 PVD_IRQHandler
000021c4 g     F .text	00000038 USBFSH_SetUsbAddress
00000180 g     F .text	00000020 .hidden __riscv_restore_10
00003be6 g     F .text	00000016 FifoInit
00002c9a g     F .text	00000004 NMI_Handler
00002ca0 g     F .text	00000016 EXTI3_IRQHandler
00003054 g     F .text	000001cc amikb_process
00000148 g     F .text	00000028 .hidden __riscv_save_11
00001c88 g     F .text	00000046 USBFS_RCC_Init
000043ec g     F .text	0000000a USART_GetFlagStatus
00005702 g     F .text	00000032 _fstat_r
000020fe g     F .text	0000006c USBFSH_GetConfigDescr
20001aac g     O .bss	00000040 USBFS_RX_Buf
20001c24 g     O .bss	00000004 errno
200000f0 g       .bss	00000000 _sbss
00000800 g       *ABS*	00000000 __stack_size
0000448c g     F .text	0000005a USART_Printf_Init
20000538 g     O .bss	00001554 HostCtl
000003ce g     F .text	00000042 USBH_AnalyseType
000021fc g     F .text	00000026 USBFSH_SetUsbConfig
20001b7c g     O .bss	0000000a mouse_info
00000194 g     F .text	0000000c .hidden __riscv_restore_2
2000010a g     O .bss	00000002 mouseDistanceX
00002cb6 g     F .text	0000008e ProcessGamepad
00004566 g     F .text	000000b2 memcpy
00003b40 g     F .text	00000066 TIM4_Init
00004aec g     F .text	0000000a _cleanup_r
00002888 g     F .text	0000002e HID_GetHidDesr
00003d92  w      .text	00000000 EXTI0_IRQHandler
00003dc8  w      .text	00000000 I2C2_EV_IRQHandler
000042c4 g     F .text	00000018 TIM_Cmd
000028b6 g     F .text	0000002a HID_SetReport
20000109 g     O .bss	00000001 mouseDirectionY
0000472c g     F .text	0000000c puts
20000074 g     O .data	00000004 SystemCoreClock
20000072 g     O .data	00000001 yTimerTop
200000f0 g     O .bss	00000002 gamepad_info
000057e0 g     F .text	00000010 _fstat
20000110 g     O .bss	00000001 previousMMB
00000038 g       .init	00000000 _einit
00004306 g     F .text	0000000c TIM_ClearITPendingBit
0000421e g     F .text	0000001e RCC_APB2PeriphClockCmd
00000140 g     F .text	00000030 .hidden __riscv_save_12
00003daa  w      .text	00000000 ADC1_2_IRQHandler
00003f00 g     F .text	000000f2 GPIO_Init
00003d80  w      .text	00000000 Break_Point_Handler
00000180 g     F .text	00000020 .hidden __riscv_restore_11
20000114 g     O .bss	00000004 NVIC_Priority_Group
00003dcc  w      .text	00000000 SPI1_IRQHandler
000043ce g     F .text	00000016 USART_Cmd
000055c0 g     F .text	00000032 _sbrk_r
00003d8a  w      .text	00000000 TAMPER_IRQHandler
00000170 g     F .text	0000000c .hidden __riscv_save_1
00004042 g     F .text	00000014 GPIO_Write
00000fc0 g     F .text	000001ae USBH_EnumHubPortDevice
00000194 g     F .text	0000000c .hidden __riscv_restore_0
0000400c g     F .text	0000001c GPIO_ReadOutputData
0000579c g     F .text	00000034 _read_r
000024b0 g     F .text	0000002c report_is_usable
00000156 g     F .text	0000001a .hidden __riscv_save_7
0000423c g     F .text	0000001e RCC_APB1PeriphClockCmd
00003d7c  w      .text	00000000 Ecall_M_Mode_Handler
20004800 g       .stack	00000000 _heap_end
20000524 g     O .bss	00000012 DevDesc_Buf
000057f0 g     F .text	00000010 _isatty
00004420 g     F .text	00000036 Delay_Us
200000ec g     O .data	00000004 _global_impure_ptr
0000018a g     F .text	00000016 .hidden __riscv_restore_5
00004200 g     F .text	0000001e RCC_AHBPeriphClockCmd
00003da2  w      .text	00000000 DMA1_Channel4_IRQHandler
00004524 g     F .text	0000002a _sbrk
0000018a g     F .text	00000016 .hidden __riscv_restore_6
00003dd4  w      .text	00000000 USART3_IRQHandler
00003ef6 g     F .text	0000000a EXTI_ClearITPendingBit
00003d8c  w      .text	00000000 RTC_IRQHandler
20001c28 g       .bss	00000000 _ebss
2000010e g     O .bss	00000001 mouseEncoderPhaseX
00002910 g     F .text	00000030 HUB_GetPortStatus
00003da8  w      .text	00000000 DMA1_Channel7_IRQHandler
0000098c g     F .text	00000104 KM_DealHidReportDesc
00003db0  w      .text	00000000 CAN1_RX1_IRQHandler
000043f6 g     F .text	0000002a Delay_Init
0000296a g     F .text	0000002a HUB_SetPortFeature
00003bc0 g     F .text	00000026 TIM4_IRQHandler
00000148 g     F .text	00000028 .hidden __riscv_save_9
00004028 g     F .text	0000001a GPIO_WriteBit
0000249c g     F .text	00000014 GetGamepadInfo
20000108 g     O .bss	00000001 mouseDirectionX
00005ed8 g     O .text	00000020 __sf_fake_stderr
00000156 g     F .text	0000001a .hidden __riscv_save_4
00003dc4  w      .text	00000000 I2C1_EV_IRQHandler
000042ee g     F .text	00000018 TIM_GetITStatus
00003ddc  w      .text	00000000 USBHD_IRQHandler
20001a8c g     O .bss	0000001f RootHubDev
20000105 g     O .bss	00000001 i
00000410 g     F .text	000001f0 USBH_EnumRootDevice
00004142 g     F .text	000000be RCC_GetClocksFreq
00003da6  w      .text	00000000 DMA1_Channel6_IRQHandler
00004f40 g     F .text	00000042 __sfputs_r
200000fc g     O .bss	00000008 mouse_report_data
00003de0  w      .text	00000000 UART4_IRQHandler
0000454e g     F .text	00000018 memchr
00004312 g     F .text	000000bc USART_Init
00004d9c g     F .text	000000a8 _free_r
000002b8 g     F .text	00000116 TIM3_IRQHandler
00003d90  w      .text	00000000 RCC_IRQHandler
00000170 g     F .text	0000000c .hidden __riscv_save_3
00003dba  w      .text	00000000 TIM1_TRG_COM_IRQHandler
000007f6 g     F .text	00000196 KM_AnalyzeHidReportDesc
00003d9c  w      .text	00000000 DMA1_Channel1_IRQHandler
00000000 g       .init	00000000 _start
000029d0 g     F .text	0000008e HID_ReadItem
00005800 g     F .text	00000010 _lseek
20000124 g     O .bss	00000400 Com_Buf
0000116e g     F .text	000000a2 KB_AnalyzeKeyValue
00003dd6  w      .text	00000000 EXTI15_10_IRQHandler
000042dc g     F .text	00000012 TIM_ITConfig
00003e6e g     F .text	0000006a EXTI_Init
00000df0 g     F .text	000000be HUB_Port_PreEnum1
000012ac g     F .text	00000224 USBH_EnumHidDevice
00003de2  w      .text	00000000 DMA1_Channel8_IRQHandler
00002a5e g     F .text	000000cc USBH_HID_GetKeybdInfo
000056d2 g     F .text	00000030 _close_r
20000000 g       .dalign	00000000 _data_vma
00002c82 g     F .text	00000018 USBH_GetMouseInfo
20000111 g     O .bss	00000001 MCU_Version
00001d70 g     F .text	0000002e USBFSH_SetSelfSpeed
000047f4 g     F .text	000000fc __swsetup_r
000014d0 g     F .text	00000792 USBH_MainDeal
00003db4  w      .text	00000000 EXTI9_5_IRQHandler
20000071 g     O .data	00000001 xTimerTop
00004ba8 g     F .text	000000a0 __sfp
00004056 g     F .text	0000002c GPIO_EXTILineConfig
000033fc g     F .text	000000ea processMouseMovement
00000148 g     F .text	00000028 .hidden __riscv_save_10
000055f2 g     F .text	0000002c __sread
00005798 g     F .text	00000002 __malloc_lock
0000018a g     F .text	00000016 .hidden __riscv_restore_4
00000180 g     F .text	00000020 .hidden __riscv_restore_8
00004a20 g     F .text	00000066 _fflush_r
00000156 g     F .text	0000001a .hidden __riscv_save_6
00003ed8 g     F .text	0000001e EXTI_GetITStatus
00003dce  w      .text	00000000 SPI2_IRQHandler
000033e8 g     F .text	00000014 InitMouse
00005ef8 g     O .text	00000020 __sf_fake_stdin
000034e6 g     F .text	000001ac ProcessMouse
000001a0 g     F .text	000000a8 memset
00000180 g     F .text	00000020 .hidden __riscv_restore_9
0000018a g     F .text	00000016 .hidden __riscv_restore_7
00003220 g     F .text	000001c8 main
00000248 g     F .text	00000070 TIM3_Init
00003cae g     F .text	000000ca collect_bits
00005696 g     F .text	00000006 __sclose
00001dee g     F .text	0000003c USBFSH_EnableRootHubPort
00004e44 g     F .text	000000d4 _malloc_r
000037a4 g     F .text	00000116 ProcessY_IRQ
00003da4  w      .text	00000000 DMA1_Channel5_IRQHandler
00004128 g     F .text	0000001a RCC_USBCLKConfig
00003d9a  w      .text	00000000 EXTI4_IRQHandler
00004456 g     F .text	00000036 Delay_Ms
00003dae  w      .text	00000000 USB_LP_CAN1_RX0_IRQHandler
00002b2a g     F .text	00000158 USBH_MouseDecode
00003692 g     F .text	00000112 ProcessX_IRQ
0000216a g     F .text	0000005a USBFSH_GetStrDescr
00003a32 g     F .text	000000a8 SystemInit
00004618 g     F .text	00000040 iprintf
00003dac  w      .text	00000000 USB_HP_CAN1_TX_IRQHandler
00000000 g       .init	00000000 _sinit
20001aec g     O .bss	00000040 USBFS_TX_Buf
00000600 g     F .text	000001f6 KM_AnalyzeConfigDesc
00003dde  w      .text	00000000 USBHDWakeUp_IRQHandler
0000569c g     F .text	00000036 _write_r
00003da0  w      .text	00000000 DMA1_Channel3_IRQHandler
00005210 g     F .text	0000010c _printf_common
20000080 g     O .data	00000004 _impure_ptr
00003db8  w      .text	00000000 TIM1_UP_IRQHandler
000048f0 g     F .text	00000130 __sflush_r
0000300e g     F .text	00000046 amikb_reset
2000010f g     O .bss	00000001 mouseEncoderPhaseY
000020bc g     F .text	00000042 USBFSH_GetDeviceDescr
00002248 g     F .text	00000048 USBFSH_GetEndpData
00003d86  w      .text	00000000 WWDG_IRQHandler
00002940 g     F .text	0000002a HUB_ClearPortFeature
00003d7e  w      .text	00000000 Ecall_U_Mode_Handler
00003ba6 g     F .text	0000001a TIM2_IRQHandler
20005000 g       .stack	00000000 _eusrstack
00000170 g     F .text	0000000c .hidden __riscv_save_2
00001d4c g     F .text	00000010 USBFSH_CheckRootHubPortSpeed
00003d84  w      .text	00000000 SW_Handler
00002994 g     F .text	0000003c HUB_GetClassDevDescr
2000010c g     O .bss	00000002 mouseDistanceY
00000a90 g     F .text	000000b0 HUB_AnalyzeConfigDesc
00003db6  w      .text	00000000 TIM1_BRK_IRQHandler
00004cb2 g     F .text	00000058 __swhatbuf_r
000043e4 g     F .text	00000008 USART_SendData
00001d1e g     F .text	0000002e USBFSH_CheckRootHubPortStatus
00003d94  w      .text	00000000 EXTI1_IRQHandler
00000156 g     F .text	0000001a .hidden __riscv_save_5
000044e6 g     F .text	0000003e _write
200000f0 g       .data	00000000 _edata
20001b98 g     O .bss	0000008c ScrollBuffer
20001c28 g       .bss	00000000 _end
00003bfc g     F .text	00000052 FifoRead
0000425a g     F .text	0000006a TIM_TimeBaseInit
00003dd8  w      .text	00000000 RTCAlarm_IRQHandler
00000eae g     F .text	000000e4 HUB_Port_PreEnum2
00005f74 g       .dlalign	00000000 _data_lma
00001cce g     F .text	00000050 USBFS_Host_Init
000028e0 g     F .text	00000030 HID_SetIdle
00003dd2  w      .text	00000000 USART2_IRQHandler
0000561e g     F .text	00000048 __swrite
00001d9e g     F .text	00000050 USBFSH_ResetRootHubPort
00004f82 g     F .text	0000028e _vfiprintf_r
00004c48 g     F .text	0000006a _fwalk_reent
00003dca  w      .text	00000000 I2C2_ER_IRQHandler
00001210 g     F .text	0000009c KB_SetReport
00003d9e  w      .text	00000000 DMA1_Channel2_IRQHandler
00002d44 g     F .text	00000124 GPIO_Config
00005f18 g     O .text	00000020 __sf_fake_stdout
0000017c g     F .text	00000024 .hidden __riscv_restore_12
00005810 g     F .text	00000010 _read
00003de4  w      .text	00000000 handle_reset
00003db2  w      .text	00000000 CAN1_SCE_IRQHandler
00003d8e  w      .text	00000000 FLASH_IRQHandler
00000170 g     F .text	0000000c .hidden __riscv_save_0
00000b40 g     F .text	000002b0 USBH_EnumHubDevice
00003ada g     F .text	00000066 TIM2_Init
00003dd0  w      .text	00000000 USART1_IRQHandler
00004d0a g     F .text	00000092 __smakebuf_r
0000531c g     F .text	000002a4 _printf_i
20000120 g     O .bss	00000004 __malloc_sbrk_start
00001d5c g     F .text	00000014 USBFSH_SetSelfAddr
000038ba g     F .text	00000178 ProcessScrollIRQ
00003dc6  w      .text	00000000 I2C1_ER_IRQHandler
00001e2a g     F .text	000000f4 USBFSH_Transact
2000011c g     O .bss	00000004 __malloc_free_list
00000194 g     F .text	0000000c .hidden __riscv_restore_1
000024dc g     F .text	000003ac parse_report_descriptor
00004f82 g     F .text	0000028e _vfprintf_r
00003ff2 g     F .text	0000001a GPIO_ReadInputDataBit
00003dda  w      .text	00000000 USBWakeUp_IRQHandler
000022d0 g     F .text	000001cc GamepadDecode
000057d0 g     F .text	00000010 _close
00001f1e g     F .text	0000019e USBFSH_CtrlTransfer



Disassembly of section .init:

00000000 <_sinit>:
   0:	5e50306f          	j	3de4 <handle_reset>
   4:	00000013          	nop
   8:	00000013          	nop
   c:	00000013          	nop
  10:	00000013          	nop
  14:	00000013          	nop
  18:	00000013          	nop
  1c:	00000013          	nop
  20:	00000013          	nop
  24:	00000013          	nop
  28:	00000013          	nop
  2c:	00000013          	nop
  30:	00000013          	nop
  34:	00100073          	ebreak

Disassembly of section .vector:

00000038 <_vector_base>:
	...
  40:	2c9a                	lhu	a4,24(s1)
  42:	0000                	unimp
  44:	2c9e                	lhu	a5,24(s1)
  46:	0000                	unimp
  48:	0000                	unimp
  4a:	0000                	unimp
  4c:	3d7c                	lbu	a5,31(a0)
	...
  56:	0000                	unimp
  58:	3d7e                	lhu	a5,62(a0)
  5a:	0000                	unimp
  5c:	3d80                	lbu	s0,25(a1)
	...
  66:	0000                	unimp
  68:	3d82                	lhu	s0,56(a1)
  6a:	0000                	unimp
  6c:	0000                	unimp
  6e:	0000                	unimp
  70:	3d84                	lbu	s1,25(a1)
  72:	0000                	unimp
  74:	0000                	unimp
  76:	0000                	unimp
  78:	3d86                	lhu	s1,56(a1)
  7a:	0000                	unimp
  7c:	3d88                	lbu	a0,25(a1)
  7e:	0000                	unimp
  80:	3d8a                	lhu	a0,56(a1)
  82:	0000                	unimp
  84:	3d8c                	lbu	a1,25(a1)
  86:	0000                	unimp
  88:	3d8e                	lhu	a1,56(a1)
  8a:	0000                	unimp
  8c:	3d90                	lbu	a2,25(a1)
  8e:	0000                	unimp
  90:	3d92                	lhu	a2,56(a1)
  92:	0000                	unimp
  94:	3d94                	lbu	a3,25(a1)
  96:	0000                	unimp
  98:	3d96                	lhu	a3,56(a1)
  9a:	0000                	unimp
  9c:	2ca0                	lbu	s0,26(s1)
  9e:	0000                	unimp
  a0:	3d9a                	lhu	a4,56(a1)
  a2:	0000                	unimp
  a4:	3d9c                	lbu	a5,25(a1)
  a6:	0000                	unimp
  a8:	3d9e                	lhu	a5,56(a1)
  aa:	0000                	unimp
  ac:	3da0                	lbu	s0,27(a1)
  ae:	0000                	unimp
  b0:	3da2                	lhu	s0,58(a1)
  b2:	0000                	unimp
  b4:	3da4                	lbu	s1,27(a1)
  b6:	0000                	unimp
  b8:	3da6                	lhu	s1,58(a1)
  ba:	0000                	unimp
  bc:	3da8                	lbu	a0,27(a1)
  be:	0000                	unimp
  c0:	3daa                	lhu	a0,58(a1)
  c2:	0000                	unimp
  c4:	3dac                	lbu	a1,27(a1)
  c6:	0000                	unimp
  c8:	3dae                	lhu	a1,58(a1)
  ca:	0000                	unimp
  cc:	3db0                	lbu	a2,27(a1)
  ce:	0000                	unimp
  d0:	3db2                	lhu	a2,58(a1)
  d2:	0000                	unimp
  d4:	3db4                	lbu	a3,27(a1)
  d6:	0000                	unimp
  d8:	3db6                	lhu	a3,58(a1)
  da:	0000                	unimp
  dc:	3db8                	lbu	a4,27(a1)
  de:	0000                	unimp
  e0:	3dba                	lhu	a4,58(a1)
  e2:	0000                	unimp
  e4:	3dbc                	lbu	a5,27(a1)
  e6:	0000                	unimp
  e8:	3ba6                	lhu	s1,50(a5)
  ea:	0000                	unimp
  ec:	02b8                	addi	a4,sp,328
  ee:	0000                	unimp
  f0:	3bc0                	lbu	s0,21(a5)
  f2:	0000                	unimp
  f4:	3dc4                	lbu	s1,29(a1)
  f6:	0000                	unimp
  f8:	3dc6                	lhu	s1,60(a1)
  fa:	0000                	unimp
  fc:	3dc8                	lbu	a0,29(a1)
  fe:	0000                	unimp
 100:	3dca                	lhu	a0,60(a1)
 102:	0000                	unimp
 104:	3dcc                	lbu	a1,29(a1)
 106:	0000                	unimp
 108:	3dce                	lhu	a1,60(a1)
 10a:	0000                	unimp
 10c:	3dd0                	lbu	a2,29(a1)
 10e:	0000                	unimp
 110:	3dd2                	lhu	a2,60(a1)
 112:	0000                	unimp
 114:	3dd4                	lbu	a3,29(a1)
 116:	0000                	unimp
 118:	3dd6                	lhu	a3,60(a1)
 11a:	0000                	unimp
 11c:	3dd8                	lbu	a4,29(a1)
 11e:	0000                	unimp
 120:	3dda                	lhu	a4,60(a1)
 122:	0000                	unimp
 124:	3ddc                	lbu	a5,29(a1)
 126:	0000                	unimp
 128:	3dde                	lhu	a5,60(a1)
 12a:	0000                	unimp
 12c:	3de0                	lbu	s0,31(a1)
 12e:	0000                	unimp
 130:	3de2                	lhu	s0,62(a1)
	...

Disassembly of section .text:

00000140 <__riscv_save_12>:
     140:	7139                	addi	sp,sp,-64
     142:	4301                	li	t1,0
     144:	c66e                	sw	s11,12(sp)
     146:	a019                	j	14c <__riscv_save_10+0x4>

00000148 <__riscv_save_10>:
     148:	7139                	addi	sp,sp,-64
     14a:	5341                	li	t1,-16
     14c:	c86a                	sw	s10,16(sp)
     14e:	ca66                	sw	s9,20(sp)
     150:	cc62                	sw	s8,24(sp)
     152:	ce5e                	sw	s7,28(sp)
     154:	a019                	j	15a <__riscv_save_4+0x4>

00000156 <__riscv_save_4>:
     156:	7139                	addi	sp,sp,-64
     158:	5301                	li	t1,-32
     15a:	d05a                	sw	s6,32(sp)
     15c:	d256                	sw	s5,36(sp)
     15e:	d452                	sw	s4,40(sp)
     160:	d64e                	sw	s3,44(sp)
     162:	d84a                	sw	s2,48(sp)
     164:	da26                	sw	s1,52(sp)
     166:	dc22                	sw	s0,56(sp)
     168:	de06                	sw	ra,60(sp)
     16a:	40610133          	sub	sp,sp,t1
     16e:	8282                	jr	t0

00000170 <__riscv_save_0>:
     170:	1141                	addi	sp,sp,-16
     172:	c04a                	sw	s2,0(sp)
     174:	c226                	sw	s1,4(sp)
     176:	c422                	sw	s0,8(sp)
     178:	c606                	sw	ra,12(sp)
     17a:	8282                	jr	t0

0000017c <__riscv_restore_12>:
     17c:	4db2                	lw	s11,12(sp)
     17e:	0141                	addi	sp,sp,16

00000180 <__riscv_restore_10>:
     180:	4d02                	lw	s10,0(sp)
     182:	4c92                	lw	s9,4(sp)
     184:	4c22                	lw	s8,8(sp)
     186:	4bb2                	lw	s7,12(sp)
     188:	0141                	addi	sp,sp,16

0000018a <__riscv_restore_4>:
     18a:	4b02                	lw	s6,0(sp)
     18c:	4a92                	lw	s5,4(sp)
     18e:	4a22                	lw	s4,8(sp)
     190:	49b2                	lw	s3,12(sp)
     192:	0141                	addi	sp,sp,16

00000194 <__riscv_restore_0>:
     194:	4902                	lw	s2,0(sp)
     196:	4492                	lw	s1,4(sp)
     198:	4422                	lw	s0,8(sp)
     19a:	40b2                	lw	ra,12(sp)
     19c:	0141                	addi	sp,sp,16
     19e:	8082                	ret

000001a0 <memset>:
     1a0:	433d                	li	t1,15
     1a2:	872a                	mv	a4,a0
     1a4:	02c37363          	bgeu	t1,a2,1ca <memset+0x2a>
     1a8:	00f77793          	andi	a5,a4,15
     1ac:	efbd                	bnez	a5,22a <memset+0x8a>
     1ae:	e5ad                	bnez	a1,218 <memset+0x78>
     1b0:	ff067693          	andi	a3,a2,-16
     1b4:	8a3d                	andi	a2,a2,15
     1b6:	96ba                	add	a3,a3,a4
     1b8:	c30c                	sw	a1,0(a4)
     1ba:	c34c                	sw	a1,4(a4)
     1bc:	c70c                	sw	a1,8(a4)
     1be:	c74c                	sw	a1,12(a4)
     1c0:	0741                	addi	a4,a4,16
     1c2:	fed76be3          	bltu	a4,a3,1b8 <memset+0x18>
     1c6:	e211                	bnez	a2,1ca <memset+0x2a>
     1c8:	8082                	ret
     1ca:	40c306b3          	sub	a3,t1,a2
     1ce:	068a                	slli	a3,a3,0x2
     1d0:	00000297          	auipc	t0,0x0
     1d4:	9696                	add	a3,a3,t0
     1d6:	00a68067          	jr	10(a3)
     1da:	00b70723          	sb	a1,14(a4)
     1de:	00b706a3          	sb	a1,13(a4)
     1e2:	00b70623          	sb	a1,12(a4)
     1e6:	00b705a3          	sb	a1,11(a4)
     1ea:	00b70523          	sb	a1,10(a4)
     1ee:	00b704a3          	sb	a1,9(a4)
     1f2:	00b70423          	sb	a1,8(a4)
     1f6:	00b703a3          	sb	a1,7(a4)
     1fa:	00b70323          	sb	a1,6(a4)
     1fe:	00b702a3          	sb	a1,5(a4)
     202:	00b70223          	sb	a1,4(a4)
     206:	00b701a3          	sb	a1,3(a4)
     20a:	00b70123          	sb	a1,2(a4)
     20e:	00b700a3          	sb	a1,1(a4)
     212:	00b70023          	sb	a1,0(a4)
     216:	8082                	ret
     218:	0ff5f593          	andi	a1,a1,255
     21c:	00859693          	slli	a3,a1,0x8
     220:	8dd5                	or	a1,a1,a3
     222:	01059693          	slli	a3,a1,0x10
     226:	8dd5                	or	a1,a1,a3
     228:	b761                	j	1b0 <memset+0x10>
     22a:	00279693          	slli	a3,a5,0x2
     22e:	00000297          	auipc	t0,0x0
     232:	9696                	add	a3,a3,t0
     234:	8286                	mv	t0,ra
     236:	fa8680e7          	jalr	-88(a3)
     23a:	8096                	mv	ra,t0
     23c:	17c1                	addi	a5,a5,-16
     23e:	8f1d                	sub	a4,a4,a5
     240:	963e                	add	a2,a2,a5
     242:	f8c374e3          	bgeu	t1,a2,1ca <memset+0x2a>
     246:	b7a5                	j	1ae <memset+0xe>

00000248 <TIM3_Init>:
     248:	f29ff2ef          	jal	t0,170 <__riscv_save_0>
     24c:	1101                	addi	sp,sp,-32
     24e:	84aa                	mv	s1,a0
     250:	842e                	mv	s0,a1
     252:	4509                	li	a0,2
     254:	4585                	li	a1,1
     256:	ca02                	sw	zero,20(sp)
     258:	cc02                	sw	zero,24(sp)
     25a:	00011e23          	sh	zero,28(sp)
     25e:	c602                	sw	zero,12(sp)
     260:	c802                	sw	zero,16(sp)
     262:	7db030ef          	jal	ra,423c <RCC_APB1PeriphClockCmd>
     266:	82e0                	sh	s0,20(sp)
     268:	40000437          	lui	s0,0x40000
     26c:	084c                	addi	a1,sp,20
     26e:	40040513          	addi	a0,s0,1024 # 40000400 <_eusrstack+0x1fffb400>
     272:	84e4                	sh	s1,24(sp)
     274:	00011d23          	sh	zero,26(sp)
     278:	00011b23          	sh	zero,22(sp)
     27c:	7df030ef          	jal	ra,425a <TIM_TimeBaseInit>
     280:	4605                	li	a2,1
     282:	4585                	li	a1,1
     284:	40040513          	addi	a0,s0,1024
     288:	054040ef          	jal	ra,42dc <TIM_ITConfig>
     28c:	12d00793          	li	a5,301
     290:	867c                	sh	a5,12(sp)
     292:	4789                	li	a5,2
     294:	875c                	sb	a5,14(sp)
     296:	0068                	addi	a0,sp,12
     298:	4785                	li	a5,1
     29a:	c83e                	sw	a5,16(sp)
     29c:	5e7030ef          	jal	ra,4082 <NVIC_Init>
     2a0:	4585                	li	a1,1
     2a2:	40040513          	addi	a0,s0,1024
     2a6:	01e040ef          	jal	ra,42c4 <TIM_Cmd>
     2aa:	e000e7b7          	lui	a5,0xe000e
     2ae:	6709                	lui	a4,0x2
     2b0:	10e7a223          	sw	a4,260(a5) # e000e104 <_eusrstack+0xc0009104>
     2b4:	6105                	addi	sp,sp,32
     2b6:	bdf9                	j	194 <__riscv_restore_0>

000002b8 <TIM3_IRQHandler>:
     2b8:	1141                	addi	sp,sp,-16
     2ba:	c622                	sw	s0,12(sp)
     2bc:	40000437          	lui	s0,0x40000
     2c0:	4585                	li	a1,1
     2c2:	40040513          	addi	a0,s0,1024 # 40000400 <_eusrstack+0x1fffb400>
     2c6:	028040ef          	jal	ra,42ee <TIM_GetITStatus>
     2ca:	c545                	beqz	a0,372 <TIM3_IRQHandler+0xba>
     2cc:	4585                	li	a1,1
     2ce:	40040513          	addi	a0,s0,1024
     2d2:	034040ef          	jal	ra,4306 <TIM_ClearITPendingBit>
     2d6:	20002737          	lui	a4,0x20002
     2da:	a8c70693          	addi	a3,a4,-1396 # 20001a8c <RootHubDev>
     2de:	2290                	lbu	a2,0(a3)
     2e0:	4789                	li	a5,2
     2e2:	08c7f863          	bgeu	a5,a2,372 <TIM3_IRQHandler+0xba>
     2e6:	3290                	lbu	a2,1(a3)
     2e8:	458d                	li	a1,3
     2ea:	32dc                	lbu	a5,5(a3)
     2ec:	04b61563          	bne	a2,a1,336 <TIM3_IRQHandler+0x7e>
     2f0:	44400713          	li	a4,1092
     2f4:	02e787b3          	mul	a5,a5,a4
     2f8:	20000737          	lui	a4,0x20000
     2fc:	53870713          	addi	a4,a4,1336 # 20000538 <HostCtl>
     300:	4681                	li	a3,0
     302:	97ba                	add	a5,a5,a4
     304:	0007c803          	lbu	a6,0(a5)
     308:	06d80563          	beq	a6,a3,372 <TIM3_IRQHandler+0xba>
     30c:	27a8                	lbu	a0,10(a5)
     30e:	863e                	mv	a2,a5
     310:	4701                	li	a4,0
     312:	a809                	j	324 <TIM3_IRQHandler+0x6c>
     314:	02364583          	lbu	a1,35(a2)
     318:	0705                	addi	a4,a4,1
     31a:	0ff77713          	andi	a4,a4,255
     31e:	0585                	addi	a1,a1,1
     320:	02b601a3          	sb	a1,35(a2)
     324:	0605                	addi	a2,a2,1
     326:	fee517e3          	bne	a0,a4,314 <TIM3_IRQHandler+0x5c>
     32a:	0685                	addi	a3,a3,1
     32c:	0ff6f693          	andi	a3,a3,255
     330:	11078793          	addi	a5,a5,272
     334:	bfd1                	j	308 <TIM3_IRQHandler+0x50>
     336:	45a5                	li	a1,9
     338:	02b61d63          	bne	a2,a1,372 <TIM3_IRQHandler+0xba>
     33c:	44400513          	li	a0,1092
     340:	02a787b3          	mul	a5,a5,a0
     344:	20000637          	lui	a2,0x20000
     348:	53860593          	addi	a1,a2,1336 # 20000538 <HostCtl>
     34c:	0066c303          	lbu	t1,6(a3)
     350:	a8c70713          	addi	a4,a4,-1396
     354:	4681                	li	a3,0
     356:	53860513          	addi	a0,a2,1336
     35a:	4e09                	li	t3,2
     35c:	4e8d                	li	t4,3
     35e:	44400f13          	li	t5,1092
     362:	97ae                	add	a5,a5,a1
     364:	0247c583          	lbu	a1,36(a5)
     368:	0585                	addi	a1,a1,1
     36a:	02b78223          	sb	a1,36(a5)
     36e:	00d31663          	bne	t1,a3,37a <TIM3_IRQHandler+0xc2>
     372:	4432                	lw	s0,12(sp)
     374:	0141                	addi	sp,sp,16
     376:	30200073          	mret
     37a:	337c                	lbu	a5,7(a4)
     37c:	04fe7463          	bgeu	t3,a5,3c4 <TIM3_IRQHandler+0x10c>
     380:	271c                	lbu	a5,8(a4)
     382:	05d79163          	bne	a5,t4,3c4 <TIM3_IRQHandler+0x10c>
     386:	275c                	lbu	a5,12(a4)
     388:	4581                	li	a1,0
     38a:	03e787b3          	mul	a5,a5,t5
     38e:	97aa                	add	a5,a5,a0
     390:	0007c283          	lbu	t0,0(a5)
     394:	02b28863          	beq	t0,a1,3c4 <TIM3_IRQHandler+0x10c>
     398:	00a7cf83          	lbu	t6,10(a5)
     39c:	883e                	mv	a6,a5
     39e:	4601                	li	a2,0
     3a0:	a809                	j	3b2 <TIM3_IRQHandler+0xfa>
     3a2:	02384883          	lbu	a7,35(a6)
     3a6:	0605                	addi	a2,a2,1
     3a8:	0ff67613          	andi	a2,a2,255
     3ac:	0885                	addi	a7,a7,1
     3ae:	031801a3          	sb	a7,35(a6)
     3b2:	0805                	addi	a6,a6,1
     3b4:	fecf97e3          	bne	t6,a2,3a2 <TIM3_IRQHandler+0xea>
     3b8:	0585                	addi	a1,a1,1
     3ba:	0ff5f593          	andi	a1,a1,255
     3be:	11078793          	addi	a5,a5,272
     3c2:	bfc9                	j	394 <TIM3_IRQHandler+0xdc>
     3c4:	0685                	addi	a3,a3,1
     3c6:	0ff6f693          	andi	a3,a3,255
     3ca:	0719                	addi	a4,a4,6
     3cc:	b74d                	j	36e <TIM3_IRQHandler+0xb6>

000003ce <USBH_AnalyseType>:
     3ce:	2158                	lbu	a4,4(a0)
     3d0:	46a1                	li	a3,8
     3d2:	00d70563          	beq	a4,a3,3dc <USBH_AnalyseType+0xe>
     3d6:	25fc                	lbu	a5,14(a1)
     3d8:	00d79563          	bne	a5,a3,3e2 <USBH_AnalyseType+0x14>
     3dc:	47a1                	li	a5,8
     3de:	a21c                	sb	a5,0(a2)
     3e0:	8082                	ret
     3e2:	469d                	li	a3,7
     3e4:	00d70463          	beq	a4,a3,3ec <USBH_AnalyseType+0x1e>
     3e8:	00d79463          	bne	a5,a3,3f0 <USBH_AnalyseType+0x22>
     3ec:	479d                	li	a5,7
     3ee:	bfc5                	j	3de <USBH_AnalyseType+0x10>
     3f0:	468d                	li	a3,3
     3f2:	00d70463          	beq	a4,a3,3fa <USBH_AnalyseType+0x2c>
     3f6:	00d79463          	bne	a5,a3,3fe <USBH_AnalyseType+0x30>
     3fa:	478d                	li	a5,3
     3fc:	b7cd                	j	3de <USBH_AnalyseType+0x10>
     3fe:	46a5                	li	a3,9
     400:	00d70463          	beq	a4,a3,408 <USBH_AnalyseType+0x3a>
     404:	00d79463          	bne	a5,a3,40c <USBH_AnalyseType+0x3e>
     408:	47a5                	li	a5,9
     40a:	bfd1                	j	3de <USBH_AnalyseType+0x10>
     40c:	57fd                	li	a5,-1
     40e:	bfc1                	j	3de <USBH_AnalyseType+0x10>

00000410 <USBH_EnumRootDevice>:
     410:	d31ff2ef          	jal	t0,140 <__riscv_save_12>
     414:	00006537          	lui	a0,0x6
     418:	20002437          	lui	s0,0x20002
     41c:	1101                	addi	sp,sp,-32
     41e:	9c850513          	addi	a0,a0,-1592 # 59c8 <_read+0x1b8>
     422:	a8c40413          	addi	s0,s0,-1396 # 20001a8c <RootHubDev>
     426:	306040ef          	jal	ra,472c <puts>
     42a:	4481                	li	s1,0
     42c:	cb418a93          	addi	s5,gp,-844 # 20000524 <DevDesc_Buf>
     430:	00006b37          	lui	s6,0x6
     434:	00140b93          	addi	s7,s0,1
     438:	06400513          	li	a0,100
     43c:	01a040ef          	jal	ra,4456 <Delay_Ms>
     440:	0485                	addi	s1,s1,1
     442:	0ff4f493          	andi	s1,s1,255
     446:	4521                	li	a0,8
     448:	00951533          	sll	a0,a0,s1
     44c:	00a040ef          	jal	ra,4456 <Delay_Ms>
     450:	4501                	li	a0,0
     452:	14d010ef          	jal	ra,1d9e <USBFSH_ResetRootHubPort>
     456:	4901                	li	s2,0
     458:	4981                	li	s3,0
     45a:	00340c93          	addi	s9,s0,3
     45e:	4d19                	li	s10,6
     460:	06400c13          	li	s8,100
     464:	8566                	mv	a0,s9
     466:	189010ef          	jal	ra,1dee <USBFSH_EnableRootHubPort>
     46a:	e519                	bnez	a0,478 <USBH_EnumRootDevice+0x68>
     46c:	0985                	addi	s3,s3,1
     46e:	0ff9f993          	andi	s3,s3,255
     472:	113d6a63          	bltu	s10,s3,586 <USBH_EnumRootDevice+0x176>
     476:	4901                	li	s2,0
     478:	0905                	addi	s2,s2,1
     47a:	0942                	slli	s2,s2,0x10
     47c:	4505                	li	a0,1
     47e:	01095913          	srli	s2,s2,0x10
     482:	7d5030ef          	jal	ra,4456 <Delay_Ms>
     486:	fd891fe3          	bne	s2,s8,464 <USBH_EnumRootDevice+0x54>
     48a:	4795                	li	a5,5
     48c:	fa97f6e3          	bgeu	a5,s1,438 <USBH_EnumRootDevice+0x28>
     490:	45d9                	li	a1,22
     492:	a821                	j	4aa <USBH_EnumRootDevice+0x9a>
     494:	00006537          	lui	a0,0x6
     498:	9e850513          	addi	a0,a0,-1560 # 59e8 <_read+0x1d8>
     49c:	17c040ef          	jal	ra,4618 <iprintf>
     4a0:	4795                	li	a5,5
     4a2:	f897fbe3          	bgeu	a5,s1,438 <USBH_EnumRootDevice+0x28>
     4a6:	04500593          	li	a1,69
     4aa:	852e                	mv	a0,a1
     4ac:	6105                	addi	sp,sp,32
     4ae:	b1f9                	j	17c <__riscv_restore_12>
     4b0:	00006c37          	lui	s8,0x6
     4b4:	9f4c0513          	addi	a0,s8,-1548 # 59f4 <_read+0x1e4>
     4b8:	274040ef          	jal	ra,472c <puts>
     4bc:	4515                	li	a0,5
     4be:	01240123          	sb	s2,2(s0)
     4c2:	795030ef          	jal	ra,4456 <Delay_Ms>
     4c6:	00006537          	lui	a0,0x6
     4ca:	9f850513          	addi	a0,a0,-1544 # 59f8 <_read+0x1e8>
     4ce:	14a040ef          	jal	ra,4618 <iprintf>
     4d2:	2048                	lbu	a0,4(s0)
     4d4:	8b418593          	addi	a1,gp,-1868 # 20000124 <Com_Buf>
     4d8:	01e10693          	addi	a3,sp,30
     4dc:	40000613          	li	a2,1024
     4e0:	41f010ef          	jal	ra,20fe <USBFSH_GetConfigDescr>
     4e4:	85aa                	mv	a1,a0
     4e6:	8b418d93          	addi	s11,gp,-1868 # 20000124 <Com_Buf>
     4ea:	e535                	bnez	a0,556 <USBH_EnumRootDevice+0x146>
     4ec:	005dcd03          	lbu	s10,5(s11)
     4f0:	4901                	li	s2,0
     4f2:	87bc                	lhu	a5,30(sp)
     4f4:	04f96563          	bltu	s2,a5,53e <USBH_EnumRootDevice+0x12e>
     4f8:	9b4c8513          	addi	a0,s9,-1612
     4fc:	230040ef          	jal	ra,472c <puts>
     500:	865e                	mv	a2,s7
     502:	8b418593          	addi	a1,gp,-1868 # 20000124 <Com_Buf>
     506:	8556                	mv	a0,s5
     508:	35d9                	jal	3ce <USBH_AnalyseType>
     50a:	300c                	lbu	a1,1(s0)
     50c:	00006537          	lui	a0,0x6
     510:	a0850513          	addi	a0,a0,-1528 # 5a08 <_read+0x1f8>
     514:	104040ef          	jal	ra,4618 <iprintf>
     518:	00006537          	lui	a0,0x6
     51c:	a1850513          	addi	a0,a0,-1512 # 5a18 <_read+0x208>
     520:	0f8040ef          	jal	ra,4618 <iprintf>
     524:	2048                	lbu	a0,4(s0)
     526:	85ea                	mv	a1,s10
     528:	4d5010ef          	jal	ra,21fc <USBFSH_SetUsbConfig>
     52c:	85aa                	mv	a1,a0
     52e:	e121                	bnez	a0,56e <USBH_EnumRootDevice+0x15e>
     530:	c62a                	sw	a0,12(sp)
     532:	9f4c0513          	addi	a0,s8,-1548
     536:	1f6040ef          	jal	ra,472c <puts>
     53a:	45b2                	lw	a1,12(sp)
     53c:	b7bd                	j	4aa <USBH_EnumRootDevice+0x9a>
     53e:	012d87b3          	add	a5,s11,s2
     542:	238c                	lbu	a1,0(a5)
     544:	0905                	addi	s2,s2,1
     546:	9d0b0513          	addi	a0,s6,-1584 # 59d0 <_read+0x1c0>
     54a:	0942                	slli	s2,s2,0x10
     54c:	0cc040ef          	jal	ra,4618 <iprintf>
     550:	01095913          	srli	s2,s2,0x10
     554:	bf79                	j	4f2 <USBH_EnumRootDevice+0xe2>
     556:	00006537          	lui	a0,0x6
     55a:	9e850513          	addi	a0,a0,-1560 # 59e8 <_read+0x1d8>
     55e:	0ba040ef          	jal	ra,4618 <iprintf>
     562:	4795                	li	a5,5
     564:	ec97fae3          	bgeu	a5,s1,438 <USBH_EnumRootDevice+0x28>
     568:	04700593          	li	a1,71
     56c:	bf3d                	j	4aa <USBH_EnumRootDevice+0x9a>
     56e:	00006537          	lui	a0,0x6
     572:	9e850513          	addi	a0,a0,-1560 # 59e8 <_read+0x1d8>
     576:	0a2040ef          	jal	ra,4618 <iprintf>
     57a:	4795                	li	a5,5
     57c:	ea97fee3          	bgeu	a5,s1,438 <USBH_EnumRootDevice+0x28>
     580:	0fb00593          	li	a1,251
     584:	b71d                	j	4aa <USBH_EnumRootDevice+0x9a>
     586:	00006537          	lui	a0,0x6
     58a:	a2450513          	addi	a0,a0,-1500 # 5a24 <_read+0x214>
     58e:	08a040ef          	jal	ra,4618 <iprintf>
     592:	cb418593          	addi	a1,gp,-844 # 20000524 <DevDesc_Buf>
     596:	00440513          	addi	a0,s0,4
     59a:	323010ef          	jal	ra,20bc <USBFSH_GetDeviceDescr>
     59e:	85aa                	mv	a1,a0
     5a0:	ee051ae3          	bnez	a0,494 <USBH_EnumRootDevice+0x84>
     5a4:	4901                	li	s2,0
     5a6:	49c9                	li	s3,18
     5a8:	012a87b3          	add	a5,s5,s2
     5ac:	238c                	lbu	a1,0(a5)
     5ae:	9d0b0513          	addi	a0,s6,-1584
     5b2:	0905                	addi	s2,s2,1
     5b4:	064040ef          	jal	ra,4618 <iprintf>
     5b8:	ff3918e3          	bne	s2,s3,5a8 <USBH_EnumRootDevice+0x198>
     5bc:	00006cb7          	lui	s9,0x6
     5c0:	9b4c8513          	addi	a0,s9,-1612 # 59b4 <_read+0x1a4>
     5c4:	168040ef          	jal	ra,472c <puts>
     5c8:	00006537          	lui	a0,0x6
     5cc:	9d850513          	addi	a0,a0,-1576 # 59d8 <_read+0x1c8>
     5d0:	048040ef          	jal	ra,4618 <iprintf>
     5d4:	2048                	lbu	a0,4(s0)
     5d6:	4589                	li	a1,2
     5d8:	4909                	li	s2,2
     5da:	01240123          	sb	s2,2(s0)
     5de:	3e7010ef          	jal	ra,21c4 <USBFSH_SetUsbAddress>
     5e2:	85aa                	mv	a1,a0
     5e4:	ec0506e3          	beqz	a0,4b0 <USBH_EnumRootDevice+0xa0>
     5e8:	00006537          	lui	a0,0x6
     5ec:	9e850513          	addi	a0,a0,-1560 # 59e8 <_read+0x1d8>
     5f0:	028040ef          	jal	ra,4618 <iprintf>
     5f4:	4795                	li	a5,5
     5f6:	e497f1e3          	bgeu	a5,s1,438 <USBH_EnumRootDevice+0x28>
     5fa:	04600593          	li	a1,70
     5fe:	b575                	j	4aa <USBH_EnumRootDevice+0x9a>

00000600 <KM_AnalyzeConfigDesc>:
     600:	b49ff2ef          	jal	t0,148 <__riscv_save_10>
     604:	44400a13          	li	s4,1092
     608:	03450a33          	mul	s4,a0,s4
     60c:	200009b7          	lui	s3,0x20000
     610:	53898993          	addi	s3,s3,1336 # 20000538 <HostCtl>
     614:	8c2a                	mv	s8,a0
     616:	8aae                	mv	s5,a1
     618:	4481                	li	s1,0
     61a:	4401                	li	s0,0
     61c:	8b418913          	addi	s2,gp,-1868 # 20000124 <Com_Buf>
     620:	4b89                	li	s7,2
     622:	01498b33          	add	s6,s3,s4
     626:	00394783          	lbu	a5,3(s2)
     62a:	00294703          	lbu	a4,2(s2)
     62e:	07a2                	slli	a5,a5,0x8
     630:	97ba                	add	a5,a5,a4
     632:	1cf45063          	bge	s0,a5,7f2 <KM_AnalyzeConfigDesc+0x1f2>
     636:	008907b3          	add	a5,s2,s0
     63a:	3398                	lbu	a4,1(a5)
     63c:	03771263          	bne	a4,s7,660 <KM_AnalyzeConfigDesc+0x60>
     640:	23dc                	lbu	a5,4(a5)
     642:	4711                	li	a4,4
     644:	00f77b63          	bgeu	a4,a5,65a <KM_AnalyzeConfigDesc+0x5a>
     648:	00eb0023          	sb	a4,0(s6)
     64c:	008907b3          	add	a5,s2,s0
     650:	239c                	lbu	a5,0(a5)
     652:	943e                	add	s0,s0,a5
     654:	0442                	slli	s0,s0,0x10
     656:	8041                	srli	s0,s0,0x10
     658:	b7f9                	j	626 <KM_AnalyzeConfigDesc+0x26>
     65a:	00fb0023          	sb	a5,0(s6)
     65e:	b7fd                	j	64c <KM_AnalyzeConfigDesc+0x4c>
     660:	4691                	li	a3,4
     662:	fed717e3          	bne	a4,a3,650 <KM_AnalyzeConfigDesc+0x50>
     666:	18e48663          	beq	s1,a4,7f2 <KM_AnalyzeConfigDesc+0x1f2>
     66a:	33d4                	lbu	a3,5(a5)
     66c:	470d                	li	a4,3
     66e:	16e69263          	bne	a3,a4,7d2 <KM_AnalyzeConfigDesc+0x1d2>
     672:	23f8                	lbu	a4,6(a5)
     674:	4685                	li	a3,1
     676:	12e6ef63          	bltu	a3,a4,7b4 <KM_AnalyzeConfigDesc+0x1b4>
     67a:	33f8                	lbu	a4,7(a5)
     67c:	12ebec63          	bltu	s7,a4,7b4 <KM_AnalyzeConfigDesc+0x1b4>
     680:	0ad71f63          	bne	a4,a3,73e <KM_AnalyzeConfigDesc+0x13e>
     684:	11000793          	li	a5,272
     688:	02f487b3          	mul	a5,s1,a5
     68c:	97d2                	add	a5,a5,s4
     68e:	97ce                	add	a5,a5,s3
     690:	a3d8                	sb	a4,4(a5)
     692:	4681                	li	a3,0
     694:	4601                	li	a2,0
     696:	85a6                	mv	a1,s1
     698:	8556                	mv	a0,s5
     69a:	246020ef          	jal	ra,28e0 <HID_SetIdle>
     69e:	008907b3          	add	a5,s2,s0
     6a2:	239c                	lbu	a5,0(a5)
     6a4:	08800813          	li	a6,136
     6a8:	22200713          	li	a4,546
     6ac:	943e                	add	s0,s0,a5
     6ae:	11000793          	li	a5,272
     6b2:	02f487b3          	mul	a5,s1,a5
     6b6:	00294883          	lbu	a7,2(s2)
     6ba:	0442                	slli	s0,s0,0x10
     6bc:	8041                	srli	s0,s0,0x10
     6be:	4681                	li	a3,0
     6c0:	4501                	li	a0,0
     6c2:	4311                	li	t1,4
     6c4:	4e15                	li	t3,5
     6c6:	02100e93          	li	t4,33
     6ca:	03048833          	mul	a6,s1,a6
     6ce:	97d2                	add	a5,a5,s4
     6d0:	97ce                	add	a5,a5,s3
     6d2:	02ec0733          	mul	a4,s8,a4
     6d6:	983a                	add	a6,a6,a4
     6d8:	00890733          	add	a4,s2,s0
     6dc:	3310                	lbu	a2,1(a4)
     6de:	0a660863          	beq	a2,t1,78e <KM_AnalyzeConfigDesc+0x18e>
     6e2:	0b147663          	bgeu	s0,a7,78e <KM_AnalyzeConfigDesc+0x18e>
     6e6:	230c                	lbu	a1,0(a4)
     6e8:	942e                	add	s0,s0,a1
     6ea:	0442                	slli	s0,s0,0x10
     6ec:	8041                	srli	s0,s0,0x10
     6ee:	09c61863          	bne	a2,t3,77e <KM_AnalyzeConfigDesc+0x17e>
     6f2:	3350                	lbu	a2,5(a4)
     6f4:	232c                	lbu	a1,2(a4)
     6f6:	00474f03          	lbu	t5,4(a4)
     6fa:	0622                	slli	a2,a2,0x8
     6fc:	00f5f293          	andi	t0,a1,15
     700:	967a                	add	a2,a2,t5
     702:	05e2                	slli	a1,a1,0x18
     704:	0642                	slli	a2,a2,0x10
     706:	85e1                	srai	a1,a1,0x18
     708:	00374f83          	lbu	t6,3(a4)
     70c:	8241                	srli	a2,a2,0x10
     70e:	0405d363          	bgez	a1,754 <KM_AnalyzeConfigDesc+0x154>
     712:	2378                	lbu	a4,6(a4)
     714:	00a78f33          	add	t5,a5,a0
     718:	00a805b3          	add	a1,a6,a0
     71c:	02ef0023          	sb	a4,32(t5)
     720:	27b8                	lbu	a4,10(a5)
     722:	05a1                	addi	a1,a1,8
     724:	0586                	slli	a1,a1,0x1
     726:	95ce                	add	a1,a1,s3
     728:	0705                	addi	a4,a4,1
     72a:	0505                	addi	a0,a0,1
     72c:	005f05a3          	sb	t0,11(t5)
     730:	01ff07a3          	sb	t6,15(t5)
     734:	a1d2                	sh	a2,4(a1)
     736:	a7b8                	sb	a4,10(a5)
     738:	0ff57513          	andi	a0,a0,255
     73c:	bf71                	j	6d8 <KM_AnalyzeConfigDesc+0xd8>
     73e:	f77710e3          	bne	a4,s7,69e <KM_AnalyzeConfigDesc+0x9e>
     742:	11000793          	li	a5,272
     746:	02f487b3          	mul	a5,s1,a5
     74a:	97d2                	add	a5,a5,s4
     74c:	97ce                	add	a5,a5,s3
     74e:	01778223          	sb	s7,4(a5)
     752:	b781                	j	692 <KM_AnalyzeConfigDesc+0x92>
     754:	00d78733          	add	a4,a5,a3
     758:	025704a3          	sb	t0,41(a4)
     75c:	03f706a3          	sb	t6,45(a4)
     760:	00d80733          	add	a4,a6,a3
     764:	0741                	addi	a4,a4,16
     766:	0706                	slli	a4,a4,0x1
     768:	974e                	add	a4,a4,s3
     76a:	ab32                	sh	a2,18(a4)
     76c:	0287c703          	lbu	a4,40(a5)
     770:	0685                	addi	a3,a3,1
     772:	0ff6f693          	andi	a3,a3,255
     776:	0705                	addi	a4,a4,1
     778:	02e78423          	sb	a4,40(a5)
     77c:	bfb1                	j	6d8 <KM_AnalyzeConfigDesc+0xd8>
     77e:	f5d61de3          	bne	a2,t4,6d8 <KM_AnalyzeConfigDesc+0xd8>
     782:	2710                	lbu	a2,8(a4)
     784:	3378                	lbu	a4,7(a4)
     786:	0622                	slli	a2,a2,0x8
     788:	8f51                	or	a4,a4,a2
     78a:	a3fa                	sh	a4,6(a5)
     78c:	b7b1                	j	6d8 <KM_AnalyzeConfigDesc+0xd8>
     78e:	4785                	li	a5,1
     790:	00f69e63          	bne	a3,a5,7ac <KM_AnalyzeConfigDesc+0x1ac>
     794:	11000793          	li	a5,272
     798:	02f487b3          	mul	a5,s1,a5
     79c:	97d2                	add	a5,a5,s4
     79e:	97ce                	add	a5,a5,s3
     7a0:	23d8                	lbu	a4,4(a5)
     7a2:	00d71563          	bne	a4,a3,7ac <KM_AnalyzeConfigDesc+0x1ac>
     7a6:	577d                	li	a4,-1
     7a8:	04e78123          	sb	a4,66(a5)
     7ac:	0485                	addi	s1,s1,1
     7ae:	0ff4f493          	andi	s1,s1,255
     7b2:	bd95                	j	626 <KM_AnalyzeConfigDesc+0x26>
     7b4:	11000793          	li	a5,272
     7b8:	02f487b3          	mul	a5,s1,a5
     7bc:	577d                	li	a4,-1
     7be:	97d2                	add	a5,a5,s4
     7c0:	97ce                	add	a5,a5,s3
     7c2:	a3d8                	sb	a4,4(a5)
     7c4:	008907b3          	add	a5,s2,s0
     7c8:	239c                	lbu	a5,0(a5)
     7ca:	943e                	add	s0,s0,a5
     7cc:	0442                	slli	s0,s0,0x10
     7ce:	8041                	srli	s0,s0,0x10
     7d0:	bff1                	j	7ac <KM_AnalyzeConfigDesc+0x1ac>
     7d2:	11000713          	li	a4,272
     7d6:	02e484b3          	mul	s1,s1,a4
     7da:	44400713          	li	a4,1092
     7de:	200007b7          	lui	a5,0x20000
     7e2:	02ec0c33          	mul	s8,s8,a4
     7e6:	9c26                	add	s8,s8,s1
     7e8:	53878493          	addi	s1,a5,1336 # 20000538 <HostCtl>
     7ec:	94e2                	add	s1,s1,s8
     7ee:	57fd                	li	a5,-1
     7f0:	a0dc                	sb	a5,4(s1)
     7f2:	4501                	li	a0,0
     7f4:	b271                	j	180 <__riscv_restore_10>

000007f6 <KM_AnalyzeHidReportDesc>:
     7f6:	8b41c683          	lbu	a3,-1868(gp) # 20000124 <Com_Buf>
     7fa:	4795                	li	a5,5
     7fc:	18f69763          	bne	a3,a5,98a <__stack_size+0x18a>
     800:	8b418713          	addi	a4,gp,-1868 # 20000124 <Com_Buf>
     804:	3314                	lbu	a3,1(a4)
     806:	4785                	li	a5,1
     808:	18f69163          	bne	a3,a5,98a <__stack_size+0x18a>
     80c:	2334                	lbu	a3,2(a4)
     80e:	47a5                	li	a5,9
     810:	16f69d63          	bne	a3,a5,98a <__stack_size+0x18a>
     814:	3334                	lbu	a3,3(a4)
     816:	4799                	li	a5,6
     818:	16f69963          	bne	a3,a5,98a <__stack_size+0x18a>
     81c:	11000693          	li	a3,272
     820:	44400813          	li	a6,1092
     824:	03050833          	mul	a6,a0,a6
     828:	200008b7          	lui	a7,0x20000
     82c:	53888613          	addi	a2,a7,1336 # 20000538 <HostCtl>
     830:	1101                	addi	sp,sp,-32
     832:	ce22                	sw	s0,28(sp)
     834:	cc26                	sw	s1,24(sp)
     836:	ca4a                	sw	s2,20(sp)
     838:	c84e                	sw	s3,16(sp)
     83a:	c652                	sw	s4,12(sp)
     83c:	c456                	sw	s5,8(sp)
     83e:	02d586b3          	mul	a3,a1,a3
     842:	c25a                	sw	s6,4(sp)
     844:	c05e                	sw	s7,0(sp)
     846:	4791                	li	a5,4
     848:	4301                	li	t1,0
     84a:	4e81                	li	t4,0
     84c:	4f01                	li	t5,0
     84e:	4e01                	li	t3,0
     850:	53888893          	addi	a7,a7,1336
     854:	4411                	li	s0,4
     856:	96c2                	add	a3,a3,a6
     858:	9636                	add	a2,a2,a3
     85a:	00665383          	lhu	t2,6(a2)
     85e:	4801                	li	a6,0
     860:	07000f93          	li	t6,112
     864:	08000493          	li	s1,128
     868:	09000293          	li	t0,144
     86c:	4921                	li	s2,8
     86e:	49c1                	li	s3,16
     870:	02000a13          	li	s4,32
     874:	4a85                	li	s5,1
     876:	0477e063          	bltu	a5,t2,8b6 <__stack_size+0xb6>
     87a:	47a1                	li	a5,8
     87c:	0ef31a63          	bne	t1,a5,970 <__stack_size+0x170>
     880:	11000793          	li	a5,272
     884:	44400713          	li	a4,1092
     888:	02f587b3          	mul	a5,a1,a5
     88c:	02e50733          	mul	a4,a0,a4
     890:	97ba                	add	a5,a5,a4
     892:	00f885b3          	add	a1,a7,a5
     896:	0425c783          	lbu	a5,66(a1)
     89a:	e781                	bnez	a5,8a2 <__stack_size+0xa2>
     89c:	4785                	li	a5,1
     89e:	04f58123          	sb	a5,66(a1)
     8a2:	4472                	lw	s0,28(sp)
     8a4:	44e2                	lw	s1,24(sp)
     8a6:	4952                	lw	s2,20(sp)
     8a8:	49c2                	lw	s3,16(sp)
     8aa:	4a32                	lw	s4,12(sp)
     8ac:	4aa2                	lw	s5,8(sp)
     8ae:	4b12                	lw	s6,4(sp)
     8b0:	4b82                	lw	s7,0(sp)
     8b2:	6105                	addi	sp,sp,32
     8b4:	8082                	ret
     8b6:	00f706b3          	add	a3,a4,a5
     8ba:	2294                	lbu	a3,0(a3)
     8bc:	0785                	addi	a5,a5,1
     8be:	07c2                	slli	a5,a5,0x10
     8c0:	00c6fb93          	andi	s7,a3,12
     8c4:	0036fb13          	andi	s6,a3,3
     8c8:	83c1                	srli	a5,a5,0x10
     8ca:	0f06f693          	andi	a3,a3,240
     8ce:	028b8d63          	beq	s7,s0,908 <__stack_size+0x108>
     8d2:	072b8b63          	beq	s7,s2,948 <__stack_size+0x148>
     8d6:	020b9563          	bnez	s7,900 <__stack_size+0x100>
     8da:	02569363          	bne	a3,t0,900 <__stack_size+0x100>
     8de:	02080163          	beqz	a6,900 <__stack_size+0x100>
     8e2:	03ee86b3          	mul	a3,t4,t5
     8e6:	9336                	add	t1,t1,a3
     8e8:	0342                	slli	t1,t1,0x10
     8ea:	01035313          	srli	t1,t1,0x10
     8ee:	000e0963          	beqz	t3,900 <__stack_size+0x100>
     8f2:	03e64683          	lbu	a3,62(a2)
     8f6:	e689                	bnez	a3,900 <__stack_size+0x100>
     8f8:	03560f23          	sb	s5,62(a2)
     8fc:	03c60fa3          	sb	t3,63(a2)
     900:	97da                	add	a5,a5,s6
     902:	07c2                	slli	a5,a5,0x10
     904:	83c1                	srli	a5,a5,0x10
     906:	bf85                	j	876 <__stack_size+0x76>
     908:	03f68b63          	beq	a3,t6,93e <__stack_size+0x13e>
     90c:	00dfeb63          	bltu	t6,a3,922 <__stack_size+0x122>
     910:	fae5                	bnez	a3,900 <__stack_size+0x100>
     912:	00f706b3          	add	a3,a4,a5
     916:	0006c803          	lbu	a6,0(a3)
     91a:	1861                	addi	a6,a6,-8
     91c:	00183813          	seqz	a6,a6
     920:	b7c5                	j	900 <__stack_size+0x100>
     922:	00968963          	beq	a3,s1,934 <__stack_size+0x134>
     926:	fc569de3          	bne	a3,t0,900 <__stack_size+0x100>
     92a:	00f706b3          	add	a3,a4,a5
     92e:	0006ce83          	lbu	t4,0(a3)
     932:	b7f9                	j	900 <__stack_size+0x100>
     934:	00f706b3          	add	a3,a4,a5
     938:	0006ce03          	lbu	t3,0(a3)
     93c:	b7d1                	j	900 <__stack_size+0x100>
     93e:	00f706b3          	add	a3,a4,a5
     942:	0006cf03          	lbu	t5,0(a3)
     946:	bf6d                	j	900 <__stack_size+0x100>
     948:	01368c63          	beq	a3,s3,960 <__stack_size+0x160>
     94c:	fb469ae3          	bne	a3,s4,900 <__stack_size+0x100>
     950:	fa0808e3          	beqz	a6,900 <__stack_size+0x100>
     954:	00f706b3          	add	a3,a4,a5
     958:	2294                	lbu	a3,0(a3)
     95a:	04d600a3          	sb	a3,65(a2)
     95e:	b74d                	j	900 <__stack_size+0x100>
     960:	fa0800e3          	beqz	a6,900 <__stack_size+0x100>
     964:	00f706b3          	add	a3,a4,a5
     968:	2294                	lbu	a3,0(a3)
     96a:	04d60023          	sb	a3,64(a2)
     96e:	bf49                	j	900 <__stack_size+0x100>
     970:	11000793          	li	a5,272
     974:	02f587b3          	mul	a5,a1,a5
     978:	44400593          	li	a1,1092
     97c:	02b50533          	mul	a0,a0,a1
     980:	97aa                	add	a5,a5,a0
     982:	97c6                	add	a5,a5,a7
     984:	04078123          	sb	zero,66(a5)
     988:	bf29                	j	8a2 <__stack_size+0xa2>
     98a:	8082                	ret

0000098c <KM_DealHidReportDesc>:
     98c:	fb4ff2ef          	jal	t0,140 <__riscv_save_12>
     990:	44400a93          	li	s5,1092
     994:	03550ab3          	mul	s5,a0,s5
     998:	200009b7          	lui	s3,0x20000
     99c:	53898793          	addi	a5,s3,1336 # 20000538 <HostCtl>
     9a0:	1141                	addi	sp,sp,-16
     9a2:	8baa                	mv	s7,a0
     9a4:	8dae                	mv	s11,a1
     9a6:	4a01                	li	s4,0
     9a8:	53898993          	addi	s3,s3,1336
     9ac:	8b418d13          	addi	s10,gp,-1868 # 20000124 <Com_Buf>
     9b0:	97d6                	add	a5,a5,s5
     9b2:	0007c903          	lbu	s2,0(a5)
     9b6:	8c56                	mv	s8,s5
     9b8:	c43e                	sw	a5,8(sp)
     9ba:	0c090763          	beqz	s2,a88 <KM_DealHidReportDesc+0xfc>
     9be:	47a2                	lw	a5,8(sp)
     9c0:	11000413          	li	s0,272
     9c4:	2384                	lbu	s1,0(a5)
     9c6:	412484b3          	sub	s1,s1,s2
     9ca:	0ff4f493          	andi	s1,s1,255
     9ce:	02848433          	mul	s0,s1,s0
     9d2:	018407b3          	add	a5,s0,s8
     9d6:	97ce                	add	a5,a5,s3
     9d8:	23fe                	lhu	a5,6(a5)
     9da:	cbc1                	beqz	a5,a6a <KM_DealHidReportDesc+0xde>
     9dc:	9456                	add	s0,s0,s5
     9de:	00640b13          	addi	s6,s0,6
     9e2:	9b4e                	add	s6,s6,s3
     9e4:	000067b7          	lui	a5,0x6
     9e8:	85a6                	mv	a1,s1
     9ea:	8bc78513          	addi	a0,a5,-1860 # 58bc <_read+0xac>
     9ee:	42b030ef          	jal	ra,4618 <iprintf>
     9f2:	85a6                	mv	a1,s1
     9f4:	86da                	mv	a3,s6
     9f6:	8b418613          	addi	a2,gp,-1868 # 20000124 <Com_Buf>
     9fa:	856e                	mv	a0,s11
     9fc:	0a05                	addi	s4,s4,1
     9fe:	68b010ef          	jal	ra,2888 <HID_GetHidDesr>
     a02:	0ffa7a13          	andi	s4,s4,255
     a06:	85aa                	mv	a1,a0
     a08:	e52d                	bnez	a0,a72 <KM_DealHidReportDesc+0xe6>
     a0a:	11000b13          	li	s6,272
     a0e:	03648b33          	mul	s6,s1,s6
     a12:	4781                	li	a5,0
     a14:	9b62                	add	s6,s6,s8
     a16:	9b4e                	add	s6,s6,s3
     a18:	a829                	j	a32 <KM_DealHidReportDesc+0xa6>
     a1a:	00fd0733          	add	a4,s10,a5
     a1e:	230c                	lbu	a1,0(a4)
     a20:	9d068513          	addi	a0,a3,-1584
     a24:	c63e                	sw	a5,12(sp)
     a26:	3f3030ef          	jal	ra,4618 <iprintf>
     a2a:	47b2                	lw	a5,12(sp)
     a2c:	0785                	addi	a5,a5,1
     a2e:	07c2                	slli	a5,a5,0x10
     a30:	83c1                	srli	a5,a5,0x10
     a32:	006b5703          	lhu	a4,6(s6)
     a36:	000066b7          	lui	a3,0x6
     a3a:	fee7e0e3          	bltu	a5,a4,a1a <KM_DealHidReportDesc+0x8e>
     a3e:	00006537          	lui	a0,0x6
     a42:	9b450513          	addi	a0,a0,-1612 # 59b4 <_read+0x1a4>
     a46:	4e7030ef          	jal	ra,472c <puts>
     a4a:	85a6                	mv	a1,s1
     a4c:	855e                	mv	a0,s7
     a4e:	3365                	jal	7f6 <KM_AnalyzeHidReportDesc>
     a50:	006b5583          	lhu	a1,6(s6)
     a54:	04640613          	addi	a2,s0,70
     a58:	964e                	add	a2,a2,s3
     a5a:	856a                	mv	a0,s10
     a5c:	281010ef          	jal	ra,24dc <parse_report_descriptor>
     a60:	08440513          	addi	a0,s0,132
     a64:	954e                	add	a0,a0,s3
     a66:	180030ef          	jal	ra,3be6 <FifoInit>
     a6a:	197d                	addi	s2,s2,-1
     a6c:	0ff97913          	andi	s2,s2,255
     a70:	b7a9                	j	9ba <KM_DealHidReportDesc+0x2e>
     a72:	000067b7          	lui	a5,0x6
     a76:	9e878513          	addi	a0,a5,-1560 # 59e8 <_read+0x1d8>
     a7a:	39f030ef          	jal	ra,4618 <iprintf>
     a7e:	4795                	li	a5,5
     a80:	f747f2e3          	bgeu	a5,s4,9e4 <KM_DealHidReportDesc+0x58>
     a84:	04800913          	li	s2,72
     a88:	854a                	mv	a0,s2
     a8a:	0141                	addi	sp,sp,16
     a8c:	ef0ff06f          	j	17c <__riscv_restore_12>

00000a90 <HUB_AnalyzeConfigDesc>:
     a90:	44400713          	li	a4,1092
     a94:	02e50533          	mul	a0,a0,a4
     a98:	8b418793          	addi	a5,gp,-1868 # 20000124 <Com_Buf>
     a9c:	33b0                	lbu	a2,3(a5)
     a9e:	23bc                	lbu	a5,2(a5)
     aa0:	200006b7          	lui	a3,0x20000
     aa4:	0622                	slli	a2,a2,0x8
     aa6:	53868693          	addi	a3,a3,1336 # 20000538 <HostCtl>
     aaa:	963e                	add	a2,a2,a5
     aac:	8b418593          	addi	a1,gp,-1868 # 20000124 <Com_Buf>
     ab0:	4781                	li	a5,0
     ab2:	4309                	li	t1,2
     ab4:	4811                	li	a6,4
     ab6:	4e25                	li	t3,9
     ab8:	4e95                	li	t4,5
     aba:	9536                	add	a0,a0,a3
     abc:	4885                	li	a7,1
     abe:	00c7c463          	blt	a5,a2,ac6 <HUB_AnalyzeConfigDesc+0x36>
     ac2:	4501                	li	a0,0
     ac4:	8082                	ret
     ac6:	00f58733          	add	a4,a1,a5
     aca:	00074f03          	lbu	t5,0(a4)
     ace:	3314                	lbu	a3,1(a4)
     ad0:	97fa                	add	a5,a5,t5
     ad2:	07c2                	slli	a5,a5,0x10
     ad4:	83c1                	srli	a5,a5,0x10
     ad6:	00669a63          	bne	a3,t1,aea <HUB_AnalyzeConfigDesc+0x5a>
     ada:	2358                	lbu	a4,4(a4)
     adc:	00e8f563          	bgeu	a7,a4,ae6 <HUB_AnalyzeConfigDesc+0x56>
     ae0:	01150023          	sb	a7,0(a0)
     ae4:	bfe9                	j	abe <HUB_AnalyzeConfigDesc+0x2e>
     ae6:	a118                	sb	a4,0(a0)
     ae8:	bfd9                	j	abe <HUB_AnalyzeConfigDesc+0x2e>
     aea:	fd069ae3          	bne	a3,a6,abe <HUB_AnalyzeConfigDesc+0x2e>
     aee:	3358                	lbu	a4,5(a4)
     af0:	fdc717e3          	bne	a4,t3,abe <HUB_AnalyzeConfigDesc+0x2e>
     af4:	00f58733          	add	a4,a1,a5
     af8:	3314                	lbu	a3,1(a4)
     afa:	fd0682e3          	beq	a3,a6,abe <HUB_AnalyzeConfigDesc+0x2e>
     afe:	fcc7d0e3          	bge	a5,a2,abe <HUB_AnalyzeConfigDesc+0x2e>
     b02:	00074f03          	lbu	t5,0(a4)
     b06:	97fa                	add	a5,a5,t5
     b08:	07c2                	slli	a5,a5,0x10
     b0a:	83c1                	srli	a5,a5,0x10
     b0c:	ffd694e3          	bne	a3,t4,af4 <HUB_AnalyzeConfigDesc+0x64>
     b10:	2334                	lbu	a3,2(a4)
     b12:	01869f13          	slli	t5,a3,0x18
     b16:	418f5f13          	srai	t5,t5,0x18
     b1a:	fc0f5de3          	bgez	t5,af4 <HUB_AnalyzeConfigDesc+0x64>
     b1e:	8abd                	andi	a3,a3,15
     b20:	b534                	sb	a3,11(a0)
     b22:	3334                	lbu	a3,3(a4)
     b24:	00474f03          	lbu	t5,4(a4)
     b28:	b574                	sb	a3,15(a0)
     b2a:	3354                	lbu	a3,5(a4)
     b2c:	2378                	lbu	a4,6(a4)
     b2e:	06a2                	slli	a3,a3,0x8
     b30:	02e50023          	sb	a4,32(a0)
     b34:	2538                	lbu	a4,10(a0)
     b36:	96fa                	add	a3,a3,t5
     b38:	a956                	sh	a3,20(a0)
     b3a:	0705                	addi	a4,a4,1
     b3c:	a538                	sb	a4,10(a0)
     b3e:	bf5d                	j	af4 <HUB_AnalyzeConfigDesc+0x64>

00000b40 <USBH_EnumHubDevice>:
     b40:	e16ff2ef          	jal	t0,156 <__riscv_save_4>
     b44:	00006537          	lui	a0,0x6
     b48:	1141                	addi	sp,sp,-16
     b4a:	8e450513          	addi	a0,a0,-1820 # 58e4 <_read+0xd4>
     b4e:	3df030ef          	jal	ra,472c <puts>
     b52:	00006537          	lui	a0,0x6
     b56:	8f050513          	addi	a0,a0,-1808 # 58f0 <_read+0xe0>
     b5a:	2bf030ef          	jal	ra,4618 <iprintf>
     b5e:	20002437          	lui	s0,0x20002
     b62:	a8c40793          	addi	a5,s0,-1396 # 20001a8c <RootHubDev>
     b66:	33c8                	lbu	a0,5(a5)
     b68:	3725                	jal	a90 <HUB_AnalyzeConfigDesc>
     b6a:	89aa                	mv	s3,a0
     b6c:	26051a63          	bnez	a0,de0 <USBH_EnumHubDevice+0x2a0>
     b70:	00006537          	lui	a0,0x6
     b74:	9f450513          	addi	a0,a0,-1548 # 59f4 <_read+0x1e4>
     b78:	3b5030ef          	jal	ra,472c <puts>
     b7c:	8b418793          	addi	a5,gp,-1868 # 20000124 <Com_Buf>
     b80:	23fc                	lbu	a5,6(a5)
     b82:	a8c40413          	addi	s0,s0,-1396
     b86:	8b418493          	addi	s1,gp,-1868 # 20000124 <Com_Buf>
     b8a:	cf95                	beqz	a5,bc6 <USBH_EnumHubDevice+0x86>
     b8c:	00006537          	lui	a0,0x6
     b90:	90450513          	addi	a0,a0,-1788 # 5904 <_read+0xf4>
     b94:	285030ef          	jal	ra,4618 <iprintf>
     b98:	20ec                	lbu	a1,6(s1)
     b9a:	2048                	lbu	a0,4(s0)
     b9c:	8b418613          	addi	a2,gp,-1868 # 20000124 <Com_Buf>
     ba0:	5ca010ef          	jal	ra,216a <USBFSH_GetStrDescr>
     ba4:	85aa                	mv	a1,a0
     ba6:	12051863          	bnez	a0,cd6 <USBH_EnumHubDevice+0x196>
     baa:	00006a37          	lui	s4,0x6
     bae:	2098                	lbu	a4,0(s1)
     bb0:	01099793          	slli	a5,s3,0x10
     bb4:	83c1                	srli	a5,a5,0x10
     bb6:	10e7e763          	bltu	a5,a4,cc4 <USBH_EnumHubDevice+0x184>
     bba:	00006537          	lui	a0,0x6
     bbe:	9b450513          	addi	a0,a0,-1612 # 59b4 <_read+0x1a4>
     bc2:	36b030ef          	jal	ra,472c <puts>
     bc6:	cb418793          	addi	a5,gp,-844 # 20000524 <DevDesc_Buf>
     bca:	27fc                	lbu	a5,14(a5)
     bcc:	cb418993          	addi	s3,gp,-844 # 20000524 <DevDesc_Buf>
     bd0:	c3a1                	beqz	a5,c10 <USBH_EnumHubDevice+0xd0>
     bd2:	00006537          	lui	a0,0x6
     bd6:	91850513          	addi	a0,a0,-1768 # 5918 <_read+0x108>
     bda:	23f030ef          	jal	ra,4618 <iprintf>
     bde:	00e9c583          	lbu	a1,14(s3)
     be2:	2048                	lbu	a0,4(s0)
     be4:	8b418613          	addi	a2,gp,-1868 # 20000124 <Com_Buf>
     be8:	4a01                	li	s4,0
     bea:	580010ef          	jal	ra,216a <USBFSH_GetStrDescr>
     bee:	85aa                	mv	a1,a0
     bf0:	10051363          	bnez	a0,cf6 <USBH_EnumHubDevice+0x1b6>
     bf4:	00006ab7          	lui	s5,0x6
     bf8:	2098                	lbu	a4,0(s1)
     bfa:	010a1793          	slli	a5,s4,0x10
     bfe:	83c1                	srli	a5,a5,0x10
     c00:	0ee7e263          	bltu	a5,a4,ce4 <USBH_EnumHubDevice+0x1a4>
     c04:	00006537          	lui	a0,0x6
     c08:	9b450513          	addi	a0,a0,-1612 # 59b4 <_read+0x1a4>
     c0c:	321030ef          	jal	ra,472c <puts>
     c10:	00f9c783          	lbu	a5,15(s3)
     c14:	c3a1                	beqz	a5,c54 <USBH_EnumHubDevice+0x114>
     c16:	00006537          	lui	a0,0x6
     c1a:	92c50513          	addi	a0,a0,-1748 # 592c <_read+0x11c>
     c1e:	1fb030ef          	jal	ra,4618 <iprintf>
     c22:	00f9c583          	lbu	a1,15(s3)
     c26:	2048                	lbu	a0,4(s0)
     c28:	8b418613          	addi	a2,gp,-1868 # 20000124 <Com_Buf>
     c2c:	4a01                	li	s4,0
     c2e:	53c010ef          	jal	ra,216a <USBFSH_GetStrDescr>
     c32:	85aa                	mv	a1,a0
     c34:	0e051163          	bnez	a0,d16 <USBH_EnumHubDevice+0x1d6>
     c38:	00006ab7          	lui	s5,0x6
     c3c:	2098                	lbu	a4,0(s1)
     c3e:	010a1793          	slli	a5,s4,0x10
     c42:	83c1                	srli	a5,a5,0x10
     c44:	0ce7e063          	bltu	a5,a4,d04 <USBH_EnumHubDevice+0x1c4>
     c48:	00006537          	lui	a0,0x6
     c4c:	9b450513          	addi	a0,a0,-1612 # 59b4 <_read+0x1a4>
     c50:	2dd030ef          	jal	ra,472c <puts>
     c54:	0109c783          	lbu	a5,16(s3)
     c58:	cf9d                	beqz	a5,c96 <USBH_EnumHubDevice+0x156>
     c5a:	00006537          	lui	a0,0x6
     c5e:	94050513          	addi	a0,a0,-1728 # 5940 <_read+0x130>
     c62:	1b7030ef          	jal	ra,4618 <iprintf>
     c66:	0109c583          	lbu	a1,16(s3)
     c6a:	2048                	lbu	a0,4(s0)
     c6c:	8b418613          	addi	a2,gp,-1868 # 20000124 <Com_Buf>
     c70:	4981                	li	s3,0
     c72:	4f8010ef          	jal	ra,216a <USBFSH_GetStrDescr>
     c76:	85aa                	mv	a1,a0
     c78:	ed5d                	bnez	a0,d36 <USBH_EnumHubDevice+0x1f6>
     c7a:	00006a37          	lui	s4,0x6
     c7e:	2098                	lbu	a4,0(s1)
     c80:	01099793          	slli	a5,s3,0x10
     c84:	83c1                	srli	a5,a5,0x10
     c86:	08e7ef63          	bltu	a5,a4,d24 <USBH_EnumHubDevice+0x1e4>
     c8a:	00006537          	lui	a0,0x6
     c8e:	9b450513          	addi	a0,a0,-1612 # 59b4 <_read+0x1a4>
     c92:	29b030ef          	jal	ra,472c <puts>
     c96:	00006537          	lui	a0,0x6
     c9a:	95450513          	addi	a0,a0,-1708 # 5954 <_read+0x144>
     c9e:	17b030ef          	jal	ra,4618 <iprintf>
     ca2:	4a15                	li	s4,5
     ca4:	00006ab7          	lui	s5,0x6
     ca8:	2048                	lbu	a0,4(s0)
     caa:	00e10613          	addi	a2,sp,14
     cae:	8b418593          	addi	a1,gp,-1868 # 20000124 <Com_Buf>
     cb2:	4e3010ef          	jal	ra,2994 <HUB_GetClassDevDescr>
     cb6:	89aa                	mv	s3,a0
     cb8:	10051463          	bnez	a0,dc0 <USBH_EnumHubDevice+0x280>
     cbc:	4901                	li	s2,0
     cbe:	00006a37          	lui	s4,0x6
     cc2:	a861                	j	d5a <USBH_EnumHubDevice+0x21a>
     cc4:	013487b3          	add	a5,s1,s3
     cc8:	238c                	lbu	a1,0(a5)
     cca:	9d0a0513          	addi	a0,s4,-1584 # 59d0 <_read+0x1c0>
     cce:	0985                	addi	s3,s3,1
     cd0:	149030ef          	jal	ra,4618 <iprintf>
     cd4:	bde9                	j	bae <USBH_EnumHubDevice+0x6e>
     cd6:	00006537          	lui	a0,0x6
     cda:	9e850513          	addi	a0,a0,-1560 # 59e8 <_read+0x1d8>
     cde:	13b030ef          	jal	ra,4618 <iprintf>
     ce2:	b5d5                	j	bc6 <USBH_EnumHubDevice+0x86>
     ce4:	014487b3          	add	a5,s1,s4
     ce8:	238c                	lbu	a1,0(a5)
     cea:	9d0a8513          	addi	a0,s5,-1584 # 59d0 <_read+0x1c0>
     cee:	0a05                	addi	s4,s4,1
     cf0:	129030ef          	jal	ra,4618 <iprintf>
     cf4:	b711                	j	bf8 <USBH_EnumHubDevice+0xb8>
     cf6:	00006537          	lui	a0,0x6
     cfa:	9e850513          	addi	a0,a0,-1560 # 59e8 <_read+0x1d8>
     cfe:	11b030ef          	jal	ra,4618 <iprintf>
     d02:	b739                	j	c10 <USBH_EnumHubDevice+0xd0>
     d04:	014487b3          	add	a5,s1,s4
     d08:	238c                	lbu	a1,0(a5)
     d0a:	9d0a8513          	addi	a0,s5,-1584
     d0e:	0a05                	addi	s4,s4,1
     d10:	109030ef          	jal	ra,4618 <iprintf>
     d14:	b725                	j	c3c <USBH_EnumHubDevice+0xfc>
     d16:	00006537          	lui	a0,0x6
     d1a:	9e850513          	addi	a0,a0,-1560 # 59e8 <_read+0x1d8>
     d1e:	0fb030ef          	jal	ra,4618 <iprintf>
     d22:	bf0d                	j	c54 <USBH_EnumHubDevice+0x114>
     d24:	013487b3          	add	a5,s1,s3
     d28:	238c                	lbu	a1,0(a5)
     d2a:	9d0a0513          	addi	a0,s4,-1584
     d2e:	0985                	addi	s3,s3,1
     d30:	0e9030ef          	jal	ra,4618 <iprintf>
     d34:	b7a9                	j	c7e <USBH_EnumHubDevice+0x13e>
     d36:	00006537          	lui	a0,0x6
     d3a:	9e850513          	addi	a0,a0,-1560 # 59e8 <_read+0x1d8>
     d3e:	0db030ef          	jal	ra,4618 <iprintf>
     d42:	bf91                	j	c96 <USBH_EnumHubDevice+0x156>
     d44:	012487b3          	add	a5,s1,s2
     d48:	238c                	lbu	a1,0(a5)
     d4a:	0905                	addi	s2,s2,1
     d4c:	9d0a0513          	addi	a0,s4,-1584
     d50:	0942                	slli	s2,s2,0x10
     d52:	0c7030ef          	jal	ra,4618 <iprintf>
     d56:	01095913          	srli	s2,s2,0x10
     d5a:	873c                	lhu	a5,14(sp)
     d5c:	fef964e3          	bltu	s2,a5,d44 <USBH_EnumHubDevice+0x204>
     d60:	00006537          	lui	a0,0x6
     d64:	9b450513          	addi	a0,a0,-1612 # 59b4 <_read+0x1a4>
     d68:	1c5030ef          	jal	ra,472c <puts>
     d6c:	20b8                	lbu	a4,2(s1)
     d6e:	4791                	li	a5,4
     d70:	04e7e663          	bltu	a5,a4,dbc <USBH_EnumHubDevice+0x27c>
     d74:	a078                	sb	a4,6(s0)
     d76:	206c                	lbu	a1,6(s0)
     d78:	00006537          	lui	a0,0x6
     d7c:	96450513          	addi	a0,a0,-1692 # 5964 <_read+0x154>
     d80:	099030ef          	jal	ra,4618 <iprintf>
     d84:	4901                	li	s2,0
     d86:	4485                	li	s1,1
     d88:	4a11                	li	s4,4
     d8a:	207c                	lbu	a5,6(s0)
     d8c:	0497e663          	bltu	a5,s1,dd8 <USBH_EnumHubDevice+0x298>
     d90:	2048                	lbu	a0,4(s0)
     d92:	4621                	li	a2,8
     d94:	0ff4f593          	andi	a1,s1,255
     d98:	3d3010ef          	jal	ra,296a <HUB_SetPortFeature>
     d9c:	cd01                	beqz	a0,db4 <USBH_EnumHubDevice+0x274>
     d9e:	14fd                	addi	s1,s1,-1
     da0:	0905                	addi	s2,s2,1
     da2:	4515                	li	a0,5
     da4:	04c2                	slli	s1,s1,0x10
     da6:	0ff97913          	andi	s2,s2,255
     daa:	6ac030ef          	jal	ra,4456 <Delay_Ms>
     dae:	80c1                	srli	s1,s1,0x10
     db0:	032a6263          	bltu	s4,s2,dd4 <USBH_EnumHubDevice+0x294>
     db4:	0485                	addi	s1,s1,1
     db6:	04c2                	slli	s1,s1,0x10
     db8:	80c1                	srli	s1,s1,0x10
     dba:	bfc1                	j	d8a <USBH_EnumHubDevice+0x24a>
     dbc:	a07c                	sb	a5,6(s0)
     dbe:	bf65                	j	d76 <USBH_EnumHubDevice+0x236>
     dc0:	1a7d                	addi	s4,s4,-1
     dc2:	85ce                	mv	a1,s3
     dc4:	9e8a8513          	addi	a0,s5,-1560
     dc8:	0ffa7a13          	andi	s4,s4,255
     dcc:	04d030ef          	jal	ra,4618 <iprintf>
     dd0:	ec0a1ce3          	bnez	s4,ca8 <USBH_EnumHubDevice+0x168>
     dd4:	0fe00993          	li	s3,254
     dd8:	854e                	mv	a0,s3
     dda:	0141                	addi	sp,sp,16
     ddc:	baeff06f          	j	18a <__riscv_restore_4>
     de0:	85aa                	mv	a1,a0
     de2:	00006537          	lui	a0,0x6
     de6:	9e850513          	addi	a0,a0,-1560 # 59e8 <_read+0x1d8>
     dea:	02f030ef          	jal	ra,4618 <iprintf>
     dee:	b7ed                	j	dd8 <USBH_EnumHubDevice+0x298>

00000df0 <HUB_Port_PreEnum1>:
     df0:	b66ff2ef          	jal	t0,156 <__riscv_save_4>
     df4:	219c                	lbu	a5,0(a1)
     df6:	1141                	addi	sp,sp,-16
     df8:	40a7d7b3          	sra	a5,a5,a0
     dfc:	8b85                	andi	a5,a5,1
     dfe:	e799                	bnez	a5,e0c <HUB_Port_PreEnum1+0x1c>
     e00:	0fe00413          	li	s0,254
     e04:	8522                	mv	a0,s0
     e06:	0141                	addi	sp,sp,16
     e08:	b82ff06f          	j	18a <__riscv_restore_4>
     e0c:	20002937          	lui	s2,0x20002
     e10:	a8c90993          	addi	s3,s2,-1396 # 20001a8c <RootHubDev>
     e14:	85aa                	mv	a1,a0
     e16:	84aa                	mv	s1,a0
     e18:	0049c503          	lbu	a0,4(s3)
     e1c:	0070                	addi	a2,sp,12
     e1e:	a8c90913          	addi	s2,s2,-1396
     e22:	2ef010ef          	jal	ra,2910 <HUB_GetPortStatus>
     e26:	842a                	mv	s0,a0
     e28:	c909                	beqz	a0,e3a <HUB_Port_PreEnum1+0x4a>
     e2a:	85aa                	mv	a1,a0
     e2c:	00006537          	lui	a0,0x6
     e30:	82050513          	addi	a0,a0,-2016 # 5820 <_read+0x10>
     e34:	7e4030ef          	jal	ra,4618 <iprintf>
     e38:	b7f1                	j	e04 <HUB_Port_PreEnum1+0x14>
     e3a:	871c                	lbu	a5,14(sp)
     e3c:	8b85                	andi	a5,a5,1
     e3e:	d3e9                	beqz	a5,e00 <HUB_Port_PreEnum1+0x10>
     e40:	0049c503          	lbu	a0,4(s3)
     e44:	4641                	li	a2,16
     e46:	85a6                	mv	a1,s1
     e48:	2f9010ef          	jal	ra,2940 <HUB_ClearPortFeature>
     e4c:	842a                	mv	s0,a0
     e4e:	4a29                	li	s4,10
     e50:	cd19                	beqz	a0,e6e <HUB_Port_PreEnum1+0x7e>
     e52:	85aa                	mv	a1,a0
     e54:	00006537          	lui	a0,0x6
     e58:	83450513          	addi	a0,a0,-1996 # 5834 <_read+0x24>
     e5c:	bfe1                	j	e34 <HUB_Port_PreEnum1+0x44>
     e5e:	871c                	lbu	a5,14(sp)
     e60:	0405                	addi	s0,s0,1
     e62:	0ff47413          	andi	s0,s0,255
     e66:	8b85                	andi	a5,a5,1
     e68:	c785                	beqz	a5,e90 <HUB_Port_PreEnum1+0xa0>
     e6a:	f9440be3          	beq	s0,s4,e00 <HUB_Port_PreEnum1+0x10>
     e6e:	00494503          	lbu	a0,4(s2)
     e72:	0070                	addi	a2,sp,12
     e74:	85a6                	mv	a1,s1
     e76:	29b010ef          	jal	ra,2910 <HUB_GetPortStatus>
     e7a:	89aa                	mv	s3,a0
     e7c:	d16d                	beqz	a0,e5e <HUB_Port_PreEnum1+0x6e>
     e7e:	85aa                	mv	a1,a0
     e80:	00006537          	lui	a0,0x6
     e84:	84850513          	addi	a0,a0,-1976 # 5848 <_read+0x38>
     e88:	790030ef          	jal	ra,4618 <iprintf>
     e8c:	844e                	mv	s0,s3
     e8e:	bf9d                	j	e04 <HUB_Port_PreEnum1+0x14>
     e90:	47a9                	li	a5,10
     e92:	f6f407e3          	beq	s0,a5,e00 <HUB_Port_PreEnum1+0x10>
     e96:	861c                	lbu	a5,12(sp)
     e98:	8b85                	andi	a5,a5,1
     e9a:	f3bd                	bnez	a5,e00 <HUB_Port_PreEnum1+0x10>
     e9c:	00006537          	lui	a0,0x6
     ea0:	85a6                	mv	a1,s1
     ea2:	85c50513          	addi	a0,a0,-1956 # 585c <_read+0x4c>
     ea6:	772030ef          	jal	ra,4618 <iprintf>
     eaa:	4459                	li	s0,22
     eac:	bfa1                	j	e04 <HUB_Port_PreEnum1+0x14>

00000eae <HUB_Port_PreEnum2>:
     eae:	aa8ff2ef          	jal	t0,156 <__riscv_save_4>
     eb2:	219c                	lbu	a5,0(a1)
     eb4:	1141                	addi	sp,sp,-16
     eb6:	40a7d7b3          	sra	a5,a5,a0
     eba:	8b85                	andi	a5,a5,1
     ebc:	e799                	bnez	a5,eca <HUB_Port_PreEnum2+0x1c>
     ebe:	0fe00413          	li	s0,254
     ec2:	8522                	mv	a0,s0
     ec4:	0141                	addi	sp,sp,16
     ec6:	ac4ff06f          	j	18a <__riscv_restore_4>
     eca:	200029b7          	lui	s3,0x20002
     ece:	a8c98793          	addi	a5,s3,-1396 # 20001a8c <RootHubDev>
     ed2:	85aa                	mv	a1,a0
     ed4:	892a                	mv	s2,a0
     ed6:	23c8                	lbu	a0,4(a5)
     ed8:	4611                	li	a2,4
     eda:	a8c98993          	addi	s3,s3,-1396
     ede:	28d010ef          	jal	ra,296a <HUB_SetPortFeature>
     ee2:	842a                	mv	s0,a0
     ee4:	c909                	beqz	a0,ef6 <HUB_Port_PreEnum2+0x48>
     ee6:	85aa                	mv	a1,a0
     ee8:	00006537          	lui	a0,0x6
     eec:	87050513          	addi	a0,a0,-1936 # 5870 <_read+0x60>
     ef0:	728030ef          	jal	ra,4618 <iprintf>
     ef4:	b7f9                	j	ec2 <HUB_Port_PreEnum2+0x14>
     ef6:	4529                	li	a0,10
     ef8:	55e030ef          	jal	ra,4456 <Delay_Ms>
     efc:	4a2d                	li	s4,11
     efe:	0049c503          	lbu	a0,4(s3)
     f02:	0070                	addi	a2,sp,12
     f04:	85ca                	mv	a1,s2
     f06:	20b010ef          	jal	ra,2910 <HUB_GetPortStatus>
     f0a:	84aa                	mv	s1,a0
     f0c:	c911                	beqz	a0,f20 <HUB_Port_PreEnum2+0x72>
     f0e:	85aa                	mv	a1,a0
     f10:	00006537          	lui	a0,0x6
     f14:	88450513          	addi	a0,a0,-1916 # 5884 <_read+0x74>
     f18:	700030ef          	jal	ra,4618 <iprintf>
     f1c:	8426                	mv	s0,s1
     f1e:	b755                	j	ec2 <HUB_Port_PreEnum2+0x14>
     f20:	871c                	lbu	a5,14(sp)
     f22:	0405                	addi	s0,s0,1
     f24:	0ff47413          	andi	s0,s0,255
     f28:	8bc1                	andi	a5,a5,16
     f2a:	eb85                	bnez	a5,f5a <HUB_Port_PreEnum2+0xac>
     f2c:	fd4419e3          	bne	s0,s4,efe <HUB_Port_PreEnum2+0x50>
     f30:	0049c503          	lbu	a0,4(s3)
     f34:	4651                	li	a2,20
     f36:	85ca                	mv	a1,s2
     f38:	209010ef          	jal	ra,2940 <HUB_ClearPortFeature>
     f3c:	4a2d                	li	s4,11
     f3e:	0049c503          	lbu	a0,4(s3)
     f42:	0070                	addi	a2,sp,12
     f44:	85ca                	mv	a1,s2
     f46:	1cb010ef          	jal	ra,2910 <HUB_GetPortStatus>
     f4a:	842a                	mv	s0,a0
     f4c:	c919                	beqz	a0,f62 <HUB_Port_PreEnum2+0xb4>
     f4e:	85aa                	mv	a1,a0
     f50:	00006537          	lui	a0,0x6
     f54:	89850513          	addi	a0,a0,-1896 # 5898 <_read+0x88>
     f58:	bf61                	j	ef0 <HUB_Port_PreEnum2+0x42>
     f5a:	47a9                	li	a5,10
     f5c:	f6f401e3          	beq	s0,a5,ebe <HUB_Port_PreEnum2+0x10>
     f60:	bfc1                	j	f30 <HUB_Port_PreEnum2+0x82>
     f62:	871c                	lbu	a5,14(sp)
     f64:	0485                	addi	s1,s1,1
     f66:	0ff4f493          	andi	s1,s1,255
     f6a:	8bc1                	andi	a5,a5,16
     f6c:	cf99                	beqz	a5,f8a <HUB_Port_PreEnum2+0xdc>
     f6e:	fd4498e3          	bne	s1,s4,f3e <HUB_Port_PreEnum2+0x90>
     f72:	861c                	lbu	a5,12(sp)
     f74:	8b85                	andi	a5,a5,1
     f76:	d7a1                	beqz	a5,ebe <HUB_Port_PreEnum2+0x10>
     f78:	00006537          	lui	a0,0x6
     f7c:	85ca                	mv	a1,s2
     f7e:	8ac50513          	addi	a0,a0,-1876 # 58ac <_read+0x9c>
     f82:	696030ef          	jal	ra,4618 <iprintf>
     f86:	4455                	li	s0,21
     f88:	bf2d                	j	ec2 <HUB_Port_PreEnum2+0x14>
     f8a:	47a9                	li	a5,10
     f8c:	f2f489e3          	beq	s1,a5,ebe <HUB_Port_PreEnum2+0x10>
     f90:	b7cd                	j	f72 <HUB_Port_PreEnum2+0xc4>

00000f92 <HUB_CheckPortSpeed>:
     f92:	9deff2ef          	jal	t0,170 <__riscv_save_0>
     f96:	200027b7          	lui	a5,0x20002
     f9a:	842e                	mv	s0,a1
     f9c:	862e                	mv	a2,a1
     f9e:	85aa                	mv	a1,a0
     fa0:	a907c503          	lbu	a0,-1392(a5) # 20001a90 <RootHubDev+0x4>
     fa4:	16d010ef          	jal	ra,2910 <HUB_GetPortStatus>
     fa8:	e911                	bnez	a0,fbc <HUB_CheckPortSpeed+0x2a>
     faa:	301c                	lbu	a5,1(s0)
     fac:	0027f713          	andi	a4,a5,2
     fb0:	e711                	bnez	a4,fbc <HUB_CheckPortSpeed+0x2a>
     fb2:	0047f513          	andi	a0,a5,4
     fb6:	00a03533          	snez	a0,a0
     fba:	0505                	addi	a0,a0,1
     fbc:	9d8ff06f          	j	194 <__riscv_restore_0>

00000fc0 <USBH_EnumHubPortDevice>:
     fc0:	988ff2ef          	jal	t0,148 <__riscv_save_10>
     fc4:	892a                	mv	s2,a0
     fc6:	00006537          	lui	a0,0x6
     fca:	1141                	addi	sp,sp,-16
     fcc:	98050513          	addi	a0,a0,-1664 # 5980 <_read+0x170>
     fd0:	8c2e                	mv	s8,a1
     fd2:	8a32                	mv	s4,a2
     fd4:	758030ef          	jal	ra,472c <puts>
     fd8:	4799                	li	a5,6
     fda:	02f907b3          	mul	a5,s2,a5
     fde:	20002437          	lui	s0,0x20002
     fe2:	a8c40993          	addi	s3,s0,-1396 # 20001a8c <RootHubDev>
     fe6:	44a9                	li	s1,10
     fe8:	a8c40413          	addi	s0,s0,-1396
     fec:	8ada                	mv	s5,s6
     fee:	00006bb7          	lui	s7,0x6
     ff2:	07ad                	addi	a5,a5,11
     ff4:	99be                	add	s3,s3,a5
     ff6:	cb418593          	addi	a1,gp,-844 # 20000524 <DevDesc_Buf>
     ffa:	854e                	mv	a0,s3
     ffc:	0c0010ef          	jal	ra,20bc <USBFSH_GetDeviceDescr>
    1000:	85aa                	mv	a1,a0
    1002:	e15d                	bnez	a0,10a8 <USBH_EnumHubPortDevice+0xe8>
    1004:	000069b7          	lui	s3,0x6
    1008:	4481                	li	s1,0
    100a:	cb418c93          	addi	s9,gp,-844 # 20000524 <DevDesc_Buf>
    100e:	4bc9                	li	s7,18
    1010:	8b4e                	mv	s6,s3
    1012:	009c87b3          	add	a5,s9,s1
    1016:	238c                	lbu	a1,0(a5)
    1018:	9d098513          	addi	a0,s3,-1584 # 59d0 <_read+0x1c0>
    101c:	0485                	addi	s1,s1,1
    101e:	5fa030ef          	jal	ra,4618 <iprintf>
    1022:	ff7498e3          	bne	s1,s7,1012 <USBH_EnumHubPortDevice+0x52>
    1026:	4499                	li	s1,6
    1028:	029904b3          	mul	s1,s2,s1
    102c:	000069b7          	lui	s3,0x6
    1030:	9b498513          	addi	a0,s3,-1612 # 59b4 <_read+0x1a4>
    1034:	6f8030ef          	jal	ra,472c <puts>
    1038:	00006537          	lui	a0,0x6
    103c:	99450513          	addi	a0,a0,-1644 # 5994 <_read+0x184>
    1040:	6ec030ef          	jal	ra,472c <puts>
    1044:	4ba9                	li	s7,10
    1046:	00006cb7          	lui	s9,0x6
    104a:	94a2                	add	s1,s1,s0
    104c:	24cc                	lbu	a1,12(s1)
    104e:	34a8                	lbu	a0,11(s1)
    1050:	0589                	addi	a1,a1,2
    1052:	0ff5f593          	andi	a1,a1,255
    1056:	16e010ef          	jal	ra,21c4 <USBFSH_SetUsbAddress>
    105a:	85aa                	mv	a1,a0
    105c:	e13d                	bnez	a0,10c2 <USBH_EnumHubPortDevice+0x102>
    105e:	4b99                	li	s7,6
    1060:	03790bb3          	mul	s7,s2,s7
    1064:	24dc                	lbu	a5,12(s1)
    1066:	4515                	li	a0,5
    1068:	0789                	addi	a5,a5,2
    106a:	00fc0023          	sb	a5,0(s8)
    106e:	3e8030ef          	jal	ra,4456 <Delay_Ms>
    1072:	00006537          	lui	a0,0x6
    1076:	9a450513          	addi	a0,a0,-1628 # 59a4 <_read+0x194>
    107a:	6b2030ef          	jal	ra,472c <puts>
    107e:	44a9                	li	s1,10
    1080:	9ba2                	add	s7,s7,s0
    1082:	8c66                	mv	s8,s9
    1084:	00006d37          	lui	s10,0x6
    1088:	00bbc503          	lbu	a0,11(s7) # 600b <_data_lma+0x97>
    108c:	8b418593          	addi	a1,gp,-1868 # 20000124 <Com_Buf>
    1090:	00e10693          	addi	a3,sp,14
    1094:	40000613          	li	a2,1024
    1098:	066010ef          	jal	ra,20fe <USBFSH_GetConfigDescr>
    109c:	85aa                	mv	a1,a0
    109e:	ed55                	bnez	a0,115a <USBH_EnumHubPortDevice+0x19a>
    10a0:	4481                	li	s1,0
    10a2:	8b418b93          	addi	s7,gp,-1868 # 20000124 <Com_Buf>
    10a6:	a0a1                	j	10ee <USBH_EnumHubPortDevice+0x12e>
    10a8:	14fd                	addi	s1,s1,-1
    10aa:	9e8b8513          	addi	a0,s7,-1560
    10ae:	0ff4f493          	andi	s1,s1,255
    10b2:	566030ef          	jal	ra,4618 <iprintf>
    10b6:	f0a1                	bnez	s1,ff6 <USBH_EnumHubPortDevice+0x36>
    10b8:	04500513          	li	a0,69
    10bc:	0141                	addi	sp,sp,16
    10be:	8c2ff06f          	j	180 <__riscv_restore_10>
    10c2:	1bfd                	addi	s7,s7,-1
    10c4:	9e8c8513          	addi	a0,s9,-1560 # 59e8 <_read+0x1d8>
    10c8:	0ffbfb93          	andi	s7,s7,255
    10cc:	54c030ef          	jal	ra,4618 <iprintf>
    10d0:	f60b9ee3          	bnez	s7,104c <USBH_EnumHubPortDevice+0x8c>
    10d4:	04600513          	li	a0,70
    10d8:	b7d5                	j	10bc <USBH_EnumHubPortDevice+0xfc>
    10da:	009b87b3          	add	a5,s7,s1
    10de:	238c                	lbu	a1,0(a5)
    10e0:	0485                	addi	s1,s1,1
    10e2:	9d0b0513          	addi	a0,s6,-1584
    10e6:	04c2                	slli	s1,s1,0x10
    10e8:	530030ef          	jal	ra,4618 <iprintf>
    10ec:	80c1                	srli	s1,s1,0x10
    10ee:	873c                	lhu	a5,14(sp)
    10f0:	fef4e5e3          	bltu	s1,a5,10da <USBH_EnumHubPortDevice+0x11a>
    10f4:	9b498513          	addi	a0,s3,-1612
    10f8:	634030ef          	jal	ra,472c <puts>
    10fc:	8652                	mv	a2,s4
    10fe:	8b418593          	addi	a1,gp,-1868 # 20000124 <Com_Buf>
    1102:	cb418513          	addi	a0,gp,-844 # 20000524 <DevDesc_Buf>
    1106:	005bc983          	lbu	s3,5(s7)
    110a:	ac4ff0ef          	jal	ra,3ce <USBH_AnalyseType>
    110e:	000a4583          	lbu	a1,0(s4)
    1112:	00006537          	lui	a0,0x6
    1116:	a0850513          	addi	a0,a0,-1528 # 5a08 <_read+0x1f8>
    111a:	4fe030ef          	jal	ra,4618 <iprintf>
    111e:	00006537          	lui	a0,0x6
    1122:	9b850513          	addi	a0,a0,-1608 # 59b8 <_read+0x1a8>
    1126:	606030ef          	jal	ra,472c <puts>
    112a:	4799                	li	a5,6
    112c:	02f90933          	mul	s2,s2,a5
    1130:	44a9                	li	s1,10
    1132:	944a                	add	s0,s0,s2
    1134:	00006937          	lui	s2,0x6
    1138:	3428                	lbu	a0,11(s0)
    113a:	85ce                	mv	a1,s3
    113c:	0c0010ef          	jal	ra,21fc <USBFSH_SetUsbConfig>
    1140:	dd35                	beqz	a0,10bc <USBH_EnumHubPortDevice+0xfc>
    1142:	14fd                	addi	s1,s1,-1
    1144:	85aa                	mv	a1,a0
    1146:	0ff4f493          	andi	s1,s1,255
    114a:	9e890513          	addi	a0,s2,-1560 # 59e8 <_read+0x1d8>
    114e:	4ca030ef          	jal	ra,4618 <iprintf>
    1152:	f0fd                	bnez	s1,1138 <USBH_EnumHubPortDevice+0x178>
    1154:	04900513          	li	a0,73
    1158:	b795                	j	10bc <USBH_EnumHubPortDevice+0xfc>
    115a:	14fd                	addi	s1,s1,-1
    115c:	9e8d0513          	addi	a0,s10,-1560 # 59e8 <_read+0x1d8>
    1160:	0ff4f493          	andi	s1,s1,255
    1164:	4b4030ef          	jal	ra,4618 <iprintf>
    1168:	f20490e3          	bnez	s1,1088 <USBH_EnumHubPortDevice+0xc8>
    116c:	b7b1                	j	10b8 <USBH_EnumHubPortDevice+0xf8>

0000116e <KB_AnalyzeKeyValue>:
    116e:	fd3fe2ef          	jal	t0,140 <__riscv_save_12>
    1172:	11000d13          	li	s10,272
    1176:	03a58d33          	mul	s10,a1,s10
    117a:	44400593          	li	a1,1092
    117e:	200007b7          	lui	a5,0x20000
    1182:	8932                	mv	s2,a2
    1184:	8c36                	mv	s8,a3
    1186:	4985                	li	s3,1
    1188:	4b09                	li	s6,2
    118a:	4b8d                	li	s7,3
    118c:	02b50533          	mul	a0,a0,a1
    1190:	956a                	add	a0,a0,s10
    1192:	53878d13          	addi	s10,a5,1336 # 20000538 <HostCtl>
    1196:	9d2a                	add	s10,s10,a0
    1198:	040d4a03          	lbu	s4,64(s10)
    119c:	043d4483          	lbu	s1,67(s10)
    11a0:	041d4a83          	lbu	s5,65(s10)
    11a4:	8dd2                	mv	s11,s4
    11a6:	414d8433          	sub	s0,s11,s4
    11aa:	0ff47413          	andi	s0,s0,255
    11ae:	043d4c83          	lbu	s9,67(s10)
    11b2:	01bafa63          	bgeu	s5,s11,11c6 <KB_AnalyzeKeyValue+0x58>
    11b6:	41948433          	sub	s0,s1,s9
    11ba:	00803433          	snez	s0,s0
    11be:	048d0223          	sb	s0,68(s10)
    11c2:	fbbfe06f          	j	17c <__riscv_restore_12>
    11c6:	013d9f63          	bne	s11,s3,11e4 <KB_AnalyzeKeyValue+0x76>
    11ca:	8662                	mv	a2,s8
    11cc:	05300593          	li	a1,83
    11d0:	854a                	mv	a0,s2
    11d2:	37c030ef          	jal	ra,454e <memchr>
    11d6:	008d9433          	sll	s0,s11,s0
    11da:	e105                	bnez	a0,11fa <KB_AnalyzeKeyValue+0x8c>
    11dc:	0d85                	addi	s11,s11,1
    11de:	0ffdfd93          	andi	s11,s11,255
    11e2:	b7d1                	j	11a6 <KB_AnalyzeKeyValue+0x38>
    11e4:	036d9063          	bne	s11,s6,1204 <KB_AnalyzeKeyValue+0x96>
    11e8:	8662                	mv	a2,s8
    11ea:	03900593          	li	a1,57
    11ee:	854a                	mv	a0,s2
    11f0:	35e030ef          	jal	ra,454e <memchr>
    11f4:	d565                	beqz	a0,11dc <KB_AnalyzeKeyValue+0x6e>
    11f6:	00899433          	sll	s0,s3,s0
    11fa:	01944433          	xor	s0,s0,s9
    11fe:	048d01a3          	sb	s0,67(s10)
    1202:	bfe9                	j	11dc <KB_AnalyzeKeyValue+0x6e>
    1204:	fd7d9ce3          	bne	s11,s7,11dc <KB_AnalyzeKeyValue+0x6e>
    1208:	8662                	mv	a2,s8
    120a:	04700593          	li	a1,71
    120e:	b7c5                	j	11ee <KB_AnalyzeKeyValue+0x80>

00001210 <KB_SetReport>:
    1210:	f61fe2ef          	jal	t0,170 <__riscv_save_0>
    1214:	86aa                	mv	a3,a0
    1216:	44400813          	li	a6,1092
    121a:	852e                	mv	a0,a1
    121c:	85b2                	mv	a1,a2
    121e:	11000613          	li	a2,272
    1222:	03068833          	mul	a6,a3,a6
    1226:	20000737          	lui	a4,0x20000
    122a:	53870793          	addi	a5,a4,1336 # 20000538 <HostCtl>
    122e:	1141                	addi	sp,sp,-16
    1230:	53870713          	addi	a4,a4,1336
    1234:	02c58633          	mul	a2,a1,a2
    1238:	9642                	add	a2,a2,a6
    123a:	97b2                	add	a5,a5,a2
    123c:	03e7c803          	lbu	a6,62(a5)
    1240:	0437c603          	lbu	a2,67(a5)
    1244:	04080063          	beqz	a6,1284 <KB_SetReport+0x74>
    1248:	03f7c783          	lbu	a5,63(a5)
    124c:	86d0                	sb	a2,13(sp)
    124e:	865c                	sb	a5,12(sp)
    1250:	4789                	li	a5,2
    1252:	44400613          	li	a2,1092
    1256:	877c                	sh	a5,14(sp)
    1258:	11000793          	li	a5,272
    125c:	02c686b3          	mul	a3,a3,a2
    1260:	4885                	li	a7,1
    1262:	02f587b3          	mul	a5,a1,a5
    1266:	00d78833          	add	a6,a5,a3
    126a:	983a                	add	a6,a6,a4
    126c:	04284603          	lbu	a2,66(a6)
    1270:	01161d63          	bne	a2,a7,128a <KB_SetReport+0x7a>
    1274:	00e10693          	addi	a3,sp,14
    1278:	0070                	addi	a2,sp,12
    127a:	63c010ef          	jal	ra,28b6 <HID_SetReport>
    127e:	0141                	addi	sp,sp,16
    1280:	f15fe06f          	j	194 <__riscv_restore_0>
    1284:	8650                	sb	a2,12(sp)
    1286:	4785                	li	a5,1
    1288:	b7e9                	j	1252 <KB_SetReport+0x42>
    128a:	0ff00593          	li	a1,255
    128e:	4501                	li	a0,0
    1290:	feb617e3          	bne	a2,a1,127e <KB_SetReport+0x6e>
    1294:	03a78793          	addi	a5,a5,58
    1298:	97b6                	add	a5,a5,a3
    129a:	02984503          	lbu	a0,41(a6)
    129e:	8734                	lhu	a3,14(sp)
    12a0:	0070                	addi	a2,sp,12
    12a2:	00f705b3          	add	a1,a4,a5
    12a6:	7eb000ef          	jal	ra,2290 <USBFSH_SendEndpData>
    12aa:	bfd1                	j	127e <KB_SetReport+0x6e>

000012ac <USBH_EnumHidDevice>:
    12ac:	e9dfe2ef          	jal	t0,148 <__riscv_save_10>
    12b0:	8aaa                	mv	s5,a0
    12b2:	00006537          	lui	a0,0x6
    12b6:	8d850513          	addi	a0,a0,-1832 # 58d8 <_read+0xc8>
    12ba:	8a2e                	mv	s4,a1
    12bc:	470030ef          	jal	ra,472c <puts>
    12c0:	00006537          	lui	a0,0x6
    12c4:	8f050513          	addi	a0,a0,-1808 # 58f0 <_read+0xe0>
    12c8:	350030ef          	jal	ra,4618 <iprintf>
    12cc:	85d2                	mv	a1,s4
    12ce:	8556                	mv	a0,s5
    12d0:	b30ff0ef          	jal	ra,600 <KM_AnalyzeConfigDesc>
    12d4:	8b2a                	mv	s6,a0
    12d6:	1e051563          	bnez	a0,14c0 <USBH_EnumHidDevice+0x214>
    12da:	00006537          	lui	a0,0x6
    12de:	9f450513          	addi	a0,a0,-1548 # 59f4 <_read+0x1e4>
    12e2:	44a030ef          	jal	ra,472c <puts>
    12e6:	8b418793          	addi	a5,gp,-1868 # 20000124 <Com_Buf>
    12ea:	23fc                	lbu	a5,6(a5)
    12ec:	8b418413          	addi	s0,gp,-1868 # 20000124 <Com_Buf>
    12f0:	cb9d                	beqz	a5,1326 <USBH_EnumHidDevice+0x7a>
    12f2:	00006537          	lui	a0,0x6
    12f6:	90450513          	addi	a0,a0,-1788 # 5904 <_read+0xf4>
    12fa:	31e030ef          	jal	ra,4618 <iprintf>
    12fe:	206c                	lbu	a1,6(s0)
    1300:	8b418613          	addi	a2,gp,-1868 # 20000124 <Com_Buf>
    1304:	8552                	mv	a0,s4
    1306:	665000ef          	jal	ra,216a <USBFSH_GetStrDescr>
    130a:	84aa                	mv	s1,a0
    130c:	10051863          	bnez	a0,141c <USBH_EnumHidDevice+0x170>
    1310:	000069b7          	lui	s3,0x6
    1314:	201c                	lbu	a5,0(s0)
    1316:	0ef4e863          	bltu	s1,a5,1406 <USBH_EnumHidDevice+0x15a>
    131a:	00006537          	lui	a0,0x6
    131e:	9b450513          	addi	a0,a0,-1612 # 59b4 <_read+0x1a4>
    1322:	40a030ef          	jal	ra,472c <puts>
    1326:	85d2                	mv	a1,s4
    1328:	8556                	mv	a0,s5
    132a:	e62ff0ef          	jal	ra,98c <KM_DealHidReportDesc>
    132e:	cb418793          	addi	a5,gp,-844 # 20000524 <DevDesc_Buf>
    1332:	27fc                	lbu	a5,14(a5)
    1334:	cb418493          	addi	s1,gp,-844 # 20000524 <DevDesc_Buf>
    1338:	cb9d                	beqz	a5,136e <USBH_EnumHidDevice+0xc2>
    133a:	00006537          	lui	a0,0x6
    133e:	91850513          	addi	a0,a0,-1768 # 5918 <_read+0x108>
    1342:	2d6030ef          	jal	ra,4618 <iprintf>
    1346:	24ec                	lbu	a1,14(s1)
    1348:	8b418613          	addi	a2,gp,-1868 # 20000124 <Com_Buf>
    134c:	8552                	mv	a0,s4
    134e:	61d000ef          	jal	ra,216a <USBFSH_GetStrDescr>
    1352:	89aa                	mv	s3,a0
    1354:	0e051763          	bnez	a0,1442 <USBH_EnumHidDevice+0x196>
    1358:	00006bb7          	lui	s7,0x6
    135c:	201c                	lbu	a5,0(s0)
    135e:	0cf9e763          	bltu	s3,a5,142c <USBH_EnumHidDevice+0x180>
    1362:	00006537          	lui	a0,0x6
    1366:	9b450513          	addi	a0,a0,-1612 # 59b4 <_read+0x1a4>
    136a:	3c2030ef          	jal	ra,472c <puts>
    136e:	34fc                	lbu	a5,15(s1)
    1370:	cb9d                	beqz	a5,13a6 <USBH_EnumHidDevice+0xfa>
    1372:	00006537          	lui	a0,0x6
    1376:	92c50513          	addi	a0,a0,-1748 # 592c <_read+0x11c>
    137a:	29e030ef          	jal	ra,4618 <iprintf>
    137e:	34ec                	lbu	a1,15(s1)
    1380:	8b418613          	addi	a2,gp,-1868 # 20000124 <Com_Buf>
    1384:	8552                	mv	a0,s4
    1386:	5e5000ef          	jal	ra,216a <USBFSH_GetStrDescr>
    138a:	89aa                	mv	s3,a0
    138c:	0c051e63          	bnez	a0,1468 <USBH_EnumHidDevice+0x1bc>
    1390:	00006bb7          	lui	s7,0x6
    1394:	201c                	lbu	a5,0(s0)
    1396:	0af9ee63          	bltu	s3,a5,1452 <USBH_EnumHidDevice+0x1a6>
    139a:	00006537          	lui	a0,0x6
    139e:	9b450513          	addi	a0,a0,-1612 # 59b4 <_read+0x1a4>
    13a2:	38a030ef          	jal	ra,472c <puts>
    13a6:	289c                	lbu	a5,16(s1)
    13a8:	cb95                	beqz	a5,13dc <USBH_EnumHidDevice+0x130>
    13aa:	00006537          	lui	a0,0x6
    13ae:	94050513          	addi	a0,a0,-1728 # 5940 <_read+0x130>
    13b2:	266030ef          	jal	ra,4618 <iprintf>
    13b6:	288c                	lbu	a1,16(s1)
    13b8:	8b418613          	addi	a2,gp,-1868 # 20000124 <Com_Buf>
    13bc:	8552                	mv	a0,s4
    13be:	5ad000ef          	jal	ra,216a <USBFSH_GetStrDescr>
    13c2:	84aa                	mv	s1,a0
    13c4:	e569                	bnez	a0,148e <USBH_EnumHidDevice+0x1e2>
    13c6:	00006937          	lui	s2,0x6
    13ca:	201c                	lbu	a5,0(s0)
    13cc:	0af4e663          	bltu	s1,a5,1478 <USBH_EnumHidDevice+0x1cc>
    13d0:	00006537          	lui	a0,0x6
    13d4:	9b450513          	addi	a0,a0,-1612 # 59b4 <_read+0x1a4>
    13d8:	354030ef          	jal	ra,472c <puts>
    13dc:	44400493          	li	s1,1092
    13e0:	029a84b3          	mul	s1,s5,s1
    13e4:	20000937          	lui	s2,0x20000
    13e8:	53890913          	addi	s2,s2,1336 # 20000538 <HostCtl>
    13ec:	4401                	li	s0,0
    13ee:	11000b93          	li	s7,272
    13f2:	4c05                	li	s8,1
    13f4:	012489b3          	add	s3,s1,s2
    13f8:	0009c783          	lbu	a5,0(s3) # 6000 <_data_lma+0x8c>
    13fc:	0af46163          	bltu	s0,a5,149e <USBH_EnumHidDevice+0x1f2>
    1400:	855a                	mv	a0,s6
    1402:	d7ffe06f          	j	180 <__riscv_restore_10>
    1406:	009407b3          	add	a5,s0,s1
    140a:	238c                	lbu	a1,0(a5)
    140c:	9d098513          	addi	a0,s3,-1584
    1410:	0485                	addi	s1,s1,1
    1412:	206030ef          	jal	ra,4618 <iprintf>
    1416:	0ff4f493          	andi	s1,s1,255
    141a:	bded                	j	1314 <USBH_EnumHidDevice+0x68>
    141c:	85aa                	mv	a1,a0
    141e:	00006537          	lui	a0,0x6
    1422:	9e850513          	addi	a0,a0,-1560 # 59e8 <_read+0x1d8>
    1426:	1f2030ef          	jal	ra,4618 <iprintf>
    142a:	bdf5                	j	1326 <USBH_EnumHidDevice+0x7a>
    142c:	013407b3          	add	a5,s0,s3
    1430:	238c                	lbu	a1,0(a5)
    1432:	9d0b8513          	addi	a0,s7,-1584 # 59d0 <_read+0x1c0>
    1436:	0985                	addi	s3,s3,1
    1438:	1e0030ef          	jal	ra,4618 <iprintf>
    143c:	0ff9f993          	andi	s3,s3,255
    1440:	bf31                	j	135c <USBH_EnumHidDevice+0xb0>
    1442:	85aa                	mv	a1,a0
    1444:	00006537          	lui	a0,0x6
    1448:	9e850513          	addi	a0,a0,-1560 # 59e8 <_read+0x1d8>
    144c:	1cc030ef          	jal	ra,4618 <iprintf>
    1450:	bf39                	j	136e <USBH_EnumHidDevice+0xc2>
    1452:	013407b3          	add	a5,s0,s3
    1456:	238c                	lbu	a1,0(a5)
    1458:	9d0b8513          	addi	a0,s7,-1584
    145c:	0985                	addi	s3,s3,1
    145e:	1ba030ef          	jal	ra,4618 <iprintf>
    1462:	0ff9f993          	andi	s3,s3,255
    1466:	b73d                	j	1394 <USBH_EnumHidDevice+0xe8>
    1468:	85aa                	mv	a1,a0
    146a:	00006537          	lui	a0,0x6
    146e:	9e850513          	addi	a0,a0,-1560 # 59e8 <_read+0x1d8>
    1472:	1a6030ef          	jal	ra,4618 <iprintf>
    1476:	bf05                	j	13a6 <USBH_EnumHidDevice+0xfa>
    1478:	009407b3          	add	a5,s0,s1
    147c:	238c                	lbu	a1,0(a5)
    147e:	9d090513          	addi	a0,s2,-1584
    1482:	0485                	addi	s1,s1,1
    1484:	194030ef          	jal	ra,4618 <iprintf>
    1488:	0ff4f493          	andi	s1,s1,255
    148c:	bf3d                	j	13ca <USBH_EnumHidDevice+0x11e>
    148e:	85aa                	mv	a1,a0
    1490:	00006537          	lui	a0,0x6
    1494:	9e850513          	addi	a0,a0,-1560 # 59e8 <_read+0x1d8>
    1498:	180030ef          	jal	ra,4618 <iprintf>
    149c:	b781                	j	13dc <USBH_EnumHidDevice+0x130>
    149e:	037407b3          	mul	a5,s0,s7
    14a2:	97a6                	add	a5,a5,s1
    14a4:	97ca                	add	a5,a5,s2
    14a6:	23d8                	lbu	a4,4(a5)
    14a8:	01871863          	bne	a4,s8,14b8 <USBH_EnumHidDevice+0x20c>
    14ac:	040781a3          	sb	zero,67(a5)
    14b0:	8622                	mv	a2,s0
    14b2:	85d2                	mv	a1,s4
    14b4:	8556                	mv	a0,s5
    14b6:	3ba9                	jal	1210 <KB_SetReport>
    14b8:	0405                	addi	s0,s0,1
    14ba:	0ff47413          	andi	s0,s0,255
    14be:	bf2d                	j	13f8 <USBH_EnumHidDevice+0x14c>
    14c0:	85aa                	mv	a1,a0
    14c2:	00006537          	lui	a0,0x6
    14c6:	9e850513          	addi	a0,a0,-1560 # 59e8 <_read+0x1d8>
    14ca:	14e030ef          	jal	ra,4618 <iprintf>
    14ce:	bf0d                	j	1400 <USBH_EnumHidDevice+0x154>

000014d0 <USBH_MainDeal>:
    14d0:	c71fe2ef          	jal	t0,140 <__riscv_save_12>
    14d4:	20002c37          	lui	s8,0x20002
    14d8:	a8cc4503          	lbu	a0,-1396(s8) # 20001a8c <RootHubDev>
    14dc:	1101                	addi	sp,sp,-32
    14de:	a8cc0413          	addi	s0,s8,-1396
    14e2:	03d000ef          	jal	ra,1d1e <USBFSH_CheckRootHubPortStatus>
    14e6:	4785                	li	a5,1
    14e8:	84aa                	mv	s1,a0
    14ea:	18f51063          	bne	a0,a5,166a <USBH_MainDeal+0x19a>
    14ee:	00006537          	lui	a0,0x6
    14f2:	a3450513          	addi	a0,a0,-1484 # 5a34 <_read+0x224>
    14f6:	236030ef          	jal	ra,472c <puts>
    14fa:	a004                	sb	s1,0(s0)
    14fc:	000402a3          	sb	zero,5(s0)
    1500:	f11fe0ef          	jal	ra,410 <USBH_EnumRootDevice>
    1504:	84aa                	mv	s1,a0
    1506:	14051663          	bnez	a0,1652 <USBH_MainDeal+0x182>
    150a:	301c                	lbu	a5,1(s0)
    150c:	470d                	li	a4,3
    150e:	04e79563          	bne	a5,a4,1558 <USBH_MainDeal+0x88>
    1512:	00006537          	lui	a0,0x6
    1516:	a4850513          	addi	a0,a0,-1464 # 5a48 <_read+0x238>
    151a:	0fe030ef          	jal	ra,4618 <iprintf>
    151e:	204c                	lbu	a1,4(s0)
    1520:	3048                	lbu	a0,5(s0)
    1522:	3369                	jal	12ac <USBH_EnumHidDevice>
    1524:	892a                	mv	s2,a0
    1526:	00006537          	lui	a0,0x6
    152a:	a6050513          	addi	a0,a0,-1440 # 5a60 <_read+0x250>
    152e:	0ea030ef          	jal	ra,4618 <iprintf>
    1532:	02091f63          	bnez	s2,1570 <USBH_MainDeal+0xa0>
    1536:	00006537          	lui	a0,0x6
    153a:	9f450513          	addi	a0,a0,-1548 # 59f4 <_read+0x1e4>
    153e:	1ee030ef          	jal	ra,472c <puts>
    1542:	478d                	li	a5,3
    1544:	a01c                	sb	a5,0(s0)
    1546:	4601                	li	a2,0
    1548:	40011537          	lui	a0,0x40011
    154c:	45a1                	li	a1,8
    154e:	80050513          	addi	a0,a0,-2048 # 40010800 <_eusrstack+0x2000b800>
    1552:	2d7020ef          	jal	ra,4028 <GPIO_WriteBit>
    1556:	a815                	j	158a <USBH_MainDeal+0xba>
    1558:	4925                	li	s2,9
    155a:	09279863          	bne	a5,s2,15ea <USBH_MainDeal+0x11a>
    155e:	00006537          	lui	a0,0x6
    1562:	a7850513          	addi	a0,a0,-1416 # 5a78 <_read+0x268>
    1566:	0b2030ef          	jal	ra,4618 <iprintf>
    156a:	dd6ff0ef          	jal	ra,b40 <USBH_EnumHubDevice>
    156e:	bf5d                	j	1524 <USBH_MainDeal+0x54>
    1570:	44d9                	li	s1,22
    1572:	00990c63          	beq	s2,s1,158a <USBH_MainDeal+0xba>
    1576:	00006537          	lui	a0,0x6
    157a:	85ca                	mv	a1,s2
    157c:	9e850513          	addi	a0,a0,-1560 # 59e8 <_read+0x1d8>
    1580:	098030ef          	jal	ra,4618 <iprintf>
    1584:	4789                	li	a5,2
    1586:	a01c                	sb	a5,0(s0)
    1588:	84ca                	mv	s1,s2
    158a:	2018                	lbu	a4,0(s0)
    158c:	4789                	li	a5,2
    158e:	2ee7fd63          	bgeu	a5,a4,1888 <USBH_MainDeal+0x3b8>
    1592:	301c                	lbu	a5,1(s0)
    1594:	470d                	li	a4,3
    1596:	00544903          	lbu	s2,5(s0)
    159a:	2ae79f63          	bne	a5,a4,1858 <USBH_MainDeal+0x388>
    159e:	44400b13          	li	s6,1092
    15a2:	03690b33          	mul	s6,s2,s6
    15a6:	20000bb7          	lui	s7,0x20000
    15aa:	538b8793          	addi	a5,s7,1336 # 20000538 <HostCtl>
    15ae:	4a01                	li	s4,0
    15b0:	538b8b93          	addi	s7,s7,1336
    15b4:	97da                	add	a5,a5,s6
    15b6:	c03e                	sw	a5,0(sp)
    15b8:	c45a                	sw	s6,8(sp)
    15ba:	8cbe                	mv	s9,a5
    15bc:	000cc783          	lbu	a5,0(s9)
    15c0:	2cfa7463          	bgeu	s4,a5,1888 <USBH_MainDeal+0x3b8>
    15c4:	11000793          	li	a5,272
    15c8:	02fa07b3          	mul	a5,s4,a5
    15cc:	084b0713          	addi	a4,s6,132
    15d0:	4a81                	li	s5,0
    15d2:	973e                	add	a4,a4,a5
    15d4:	975e                	add	a4,a4,s7
    15d6:	c23a                	sw	a4,4(sp)
    15d8:	4722                	lw	a4,8(sp)
    15da:	00e789b3          	add	s3,a5,a4
    15de:	01cb0713          	addi	a4,s6,28
    15e2:	97ba                	add	a5,a5,a4
    15e4:	99de                	add	s3,s3,s7
    15e6:	c63e                	sw	a5,12(sp)
    15e8:	aa59                	j	177e <USBH_MainDeal+0x2ae>
    15ea:	00006537          	lui	a0,0x6
    15ee:	a9050513          	addi	a0,a0,-1392 # 5a90 <_read+0x280>
    15f2:	026030ef          	jal	ra,4618 <iprintf>
    15f6:	301c                	lbu	a5,1(s0)
    15f8:	4721                	li	a4,8
    15fa:	02e78b63          	beq	a5,a4,1630 <USBH_MainDeal+0x160>
    15fe:	00f76e63          	bltu	a4,a5,161a <USBH_MainDeal+0x14a>
    1602:	471d                	li	a4,7
    1604:	02e78d63          	beq	a5,a4,163e <USBH_MainDeal+0x16e>
    1608:	00006537          	lui	a0,0x6
    160c:	acc50513          	addi	a0,a0,-1332 # 5acc <_read+0x2bc>
    1610:	11c030ef          	jal	ra,472c <puts>
    1614:	478d                	li	a5,3
    1616:	a01c                	sb	a5,0(s0)
    1618:	bf8d                	j	158a <USBH_MainDeal+0xba>
    161a:	03278763          	beq	a5,s2,1648 <USBH_MainDeal+0x178>
    161e:	0ff00713          	li	a4,255
    1622:	fee793e3          	bne	a5,a4,1608 <USBH_MainDeal+0x138>
    1626:	00006537          	lui	a0,0x6
    162a:	ac050513          	addi	a0,a0,-1344 # 5ac0 <_read+0x2b0>
    162e:	a029                	j	1638 <USBH_MainDeal+0x168>
    1630:	00006537          	lui	a0,0x6
    1634:	aa050513          	addi	a0,a0,-1376 # 5aa0 <_read+0x290>
    1638:	7e1020ef          	jal	ra,4618 <iprintf>
    163c:	b7f1                	j	1608 <USBH_MainDeal+0x138>
    163e:	00006537          	lui	a0,0x6
    1642:	aac50513          	addi	a0,a0,-1364 # 5aac <_read+0x29c>
    1646:	bfcd                	j	1638 <USBH_MainDeal+0x168>
    1648:	00006537          	lui	a0,0x6
    164c:	ab850513          	addi	a0,a0,-1352 # 5ab8 <_read+0x2a8>
    1650:	b7e5                	j	1638 <USBH_MainDeal+0x168>
    1652:	47d9                	li	a5,22
    1654:	f2f50be3          	beq	a0,a5,158a <USBH_MainDeal+0xba>
    1658:	85aa                	mv	a1,a0
    165a:	00006537          	lui	a0,0x6
    165e:	ad850513          	addi	a0,a0,-1320 # 5ad8 <_read+0x2c8>
    1662:	7b7020ef          	jal	ra,4618 <iprintf>
    1666:	4789                	li	a5,2
    1668:	b77d                	j	1616 <USBH_MainDeal+0x146>
    166a:	f105                	bnez	a0,158a <USBH_MainDeal+0xba>
    166c:	00006537          	lui	a0,0x6
    1670:	af850513          	addi	a0,a0,-1288 # 5af8 <_read+0x2e8>
    1674:	0b8030ef          	jal	ra,472c <puts>
    1678:	467d                	li	a2,31
    167a:	00544903          	lbu	s2,5(s0)
    167e:	4581                	li	a1,0
    1680:	a8cc0513          	addi	a0,s8,-1396
    1684:	b1dfe0ef          	jal	ra,1a0 <memset>
    1688:	44400513          	li	a0,1092
    168c:	02a90933          	mul	s2,s2,a0
    1690:	20000537          	lui	a0,0x20000
    1694:	53850513          	addi	a0,a0,1336 # 20000538 <HostCtl>
    1698:	44400613          	li	a2,1092
    169c:	4581                	li	a1,0
    169e:	954a                	add	a0,a0,s2
    16a0:	b01fe0ef          	jal	ra,1a0 <memset>
    16a4:	4605                	li	a2,1
    16a6:	b54d                	j	1548 <USBH_MainDeal+0x78>
    16a8:	01598d33          	add	s10,s3,s5
    16ac:	024d4703          	lbu	a4,36(s10)
    16b0:	020d4683          	lbu	a3,32(s10)
    16b4:	0cd76263          	bltu	a4,a3,1778 <USBH_MainDeal+0x2a8>
    16b8:	02d77733          	remu	a4,a4,a3
    16bc:	47b2                	lw	a5,12(sp)
    16be:	00bd4503          	lbu	a0,11(s10)
    16c2:	01e10693          	addi	a3,sp,30
    16c6:	015785b3          	add	a1,a5,s5
    16ca:	8b418613          	addi	a2,gp,-1868 # 20000124 <Com_Buf>
    16ce:	95de                	add	a1,a1,s7
    16d0:	02ed0223          	sb	a4,36(s10)
    16d4:	375000ef          	jal	ra,2248 <USBFSH_GetEndpData>
    16d8:	84aa                	mv	s1,a0
    16da:	0c051c63          	bnez	a0,17b2 <USBH_MainDeal+0x2e2>
    16de:	87b0                	lhu	a2,30(sp)
    16e0:	4512                	lw	a0,4(sp)
    16e2:	8b418593          	addi	a1,gp,-1868 # 20000124 <Com_Buf>
    16e6:	10c98823          	sb	a2,272(s3)
    16ea:	564020ef          	jal	ra,3c4e <FifoWrite>
    16ee:	00006537          	lui	a0,0x6
    16f2:	85ca                	mv	a1,s2
    16f4:	b0c50513          	addi	a0,a0,-1268 # 5b0c <_read+0x2fc>
    16f8:	721020ef          	jal	ra,4618 <iprintf>
    16fc:	0889d583          	lhu	a1,136(s3)
    1700:	00006537          	lui	a0,0x6
    1704:	b1850513          	addi	a0,a0,-1256 # 5b18 <_read+0x308>
    1708:	711020ef          	jal	ra,4618 <iprintf>
    170c:	08a9d583          	lhu	a1,138(s3)
    1710:	00006537          	lui	a0,0x6
    1714:	b2c50513          	addi	a0,a0,-1236 # 5b2c <_read+0x31c>
    1718:	701020ef          	jal	ra,4618 <iprintf>
    171c:	0469d583          	lhu	a1,70(s3)
    1720:	00006537          	lui	a0,0x6
    1724:	b4050513          	addi	a0,a0,-1216 # 5b40 <_read+0x330>
    1728:	898d                	andi	a1,a1,3
    172a:	6ef020ef          	jal	ra,4618 <iprintf>
    172e:	87ac                	lhu	a1,30(sp)
    1730:	00006537          	lui	a0,0x6
    1734:	b5850513          	addi	a0,a0,-1192 # 5b58 <_read+0x348>
    1738:	6e1020ef          	jal	ra,4618 <iprintf>
    173c:	4d81                	li	s11,0
    173e:	87bc                	lhu	a5,30(sp)
    1740:	04fdea63          	bltu	s11,a5,1794 <USBH_MainDeal+0x2c4>
    1744:	00006537          	lui	a0,0x6
    1748:	9b450513          	addi	a0,a0,-1612 # 59b4 <_read+0x1a4>
    174c:	7e1020ef          	jal	ra,472c <puts>
    1750:	0049c703          	lbu	a4,4(s3)
    1754:	4785                	li	a5,1
    1756:	02f71163          	bne	a4,a5,1778 <USBH_MainDeal+0x2a8>
    175a:	87b4                	lhu	a3,30(sp)
    175c:	8b418613          	addi	a2,gp,-1868 # 20000124 <Com_Buf>
    1760:	85d2                	mv	a1,s4
    1762:	854a                	mv	a0,s2
    1764:	a0bff0ef          	jal	ra,116e <KB_AnalyzeKeyValue>
    1768:	0449c783          	lbu	a5,68(s3)
    176c:	c791                	beqz	a5,1778 <USBH_MainDeal+0x2a8>
    176e:	204c                	lbu	a1,4(s0)
    1770:	8652                	mv	a2,s4
    1772:	854a                	mv	a0,s2
    1774:	a9dff0ef          	jal	ra,1210 <KB_SetReport>
    1778:	0a85                	addi	s5,s5,1
    177a:	0ffafa93          	andi	s5,s5,255
    177e:	00a9c783          	lbu	a5,10(s3)
    1782:	f2fae3e3          	bltu	s5,a5,16a8 <USBH_MainDeal+0x1d8>
    1786:	47d9                	li	a5,22
    1788:	10f48063          	beq	s1,a5,1888 <USBH_MainDeal+0x3b8>
    178c:	0a05                	addi	s4,s4,1
    178e:	0ffa7a13          	andi	s4,s4,255
    1792:	b52d                	j	15bc <USBH_MainDeal+0xec>
    1794:	8b418793          	addi	a5,gp,-1868 # 20000124 <Com_Buf>
    1798:	97ee                	add	a5,a5,s11
    179a:	238c                	lbu	a1,0(a5)
    179c:	0d85                	addi	s11,s11,1
    179e:	000067b7          	lui	a5,0x6
    17a2:	9d078513          	addi	a0,a5,-1584 # 59d0 <_read+0x1c0>
    17a6:	0dc2                	slli	s11,s11,0x10
    17a8:	671020ef          	jal	ra,4618 <iprintf>
    17ac:	010ddd93          	srli	s11,s11,0x10
    17b0:	b779                	j	173e <USBH_MainDeal+0x26e>
    17b2:	4dd9                	li	s11,22
    17b4:	0db50a63          	beq	a0,s11,1888 <USBH_MainDeal+0x3b8>
    17b8:	02e00713          	li	a4,46
    17bc:	fae51ee3          	bne	a0,a4,1778 <USBH_MainDeal+0x2a8>
    17c0:	00006537          	lui	a0,0x6
    17c4:	b6450513          	addi	a0,a0,-1180 # 5b64 <_read+0x354>
    17c8:	765020ef          	jal	ra,472c <puts>
    17cc:	00bd4583          	lbu	a1,11(s10)
    17d0:	2048                	lbu	a0,4(s0)
    17d2:	0805e593          	ori	a1,a1,128
    17d6:	24d000ef          	jal	ra,2222 <USBFSH_ClearEndpStall>
    17da:	001cc703          	lbu	a4,1(s9)
    17de:	000d0e23          	sb	zero,28(s10)
    17e2:	46a5                	li	a3,9
    17e4:	0705                	addi	a4,a4,1
    17e6:	0ff77713          	andi	a4,a4,255
    17ea:	00ec80a3          	sb	a4,1(s9)
    17ee:	f8e6f5e3          	bgeu	a3,a4,1778 <USBH_MainDeal+0x2a8>
    17f2:	467d                	li	a2,31
    17f4:	4581                	li	a1,0
    17f6:	a8cc0513          	addi	a0,s8,-1396
    17fa:	9a7fe0ef          	jal	ra,1a0 <memset>
    17fe:	c13fe0ef          	jal	ra,410 <USBH_EnumRootDevice>
    1802:	84aa                	mv	s1,a0
    1804:	e529                	bnez	a0,184e <USBH_MainDeal+0x37e>
    1806:	00bd4583          	lbu	a1,11(s10)
    180a:	2048                	lbu	a0,4(s0)
    180c:	0805e593          	ori	a1,a1,128
    1810:	213000ef          	jal	ra,2222 <USBFSH_ClearEndpStall>
    1814:	4502                	lw	a0,0(sp)
    1816:	4785                	li	a5,1
    1818:	44400613          	li	a2,1092
    181c:	4581                	li	a1,0
    181e:	000c80a3          	sb	zero,1(s9)
    1822:	a01c                	sb	a5,0(s0)
    1824:	000402a3          	sb	zero,5(s0)
    1828:	979fe0ef          	jal	ra,1a0 <memset>
    182c:	204c                	lbu	a1,4(s0)
    182e:	854a                	mv	a0,s2
    1830:	a7dff0ef          	jal	ra,12ac <USBH_EnumHidDevice>
    1834:	84aa                	mv	s1,a0
    1836:	ed01                	bnez	a0,184e <USBH_MainDeal+0x37e>
    1838:	40011537          	lui	a0,0x40011
    183c:	478d                	li	a5,3
    183e:	4601                	li	a2,0
    1840:	45a1                	li	a1,8
    1842:	80050513          	addi	a0,a0,-2048 # 40010800 <_eusrstack+0x2000b800>
    1846:	a01c                	sb	a5,0(s0)
    1848:	7e0020ef          	jal	ra,4028 <GPIO_WriteBit>
    184c:	b735                	j	1778 <USBH_MainDeal+0x2a8>
    184e:	f3b485e3          	beq	s1,s11,1778 <USBH_MainDeal+0x2a8>
    1852:	4789                	li	a5,2
    1854:	a01c                	sb	a5,0(s0)
    1856:	b70d                	j	1778 <USBH_MainDeal+0x2a8>
    1858:	4725                	li	a4,9
    185a:	02e79763          	bne	a5,a4,1888 <USBH_MainDeal+0x3b8>
    185e:	44400593          	li	a1,1092
    1862:	02b90933          	mul	s2,s2,a1
    1866:	200009b7          	lui	s3,0x20000
    186a:	53898a13          	addi	s4,s3,1336 # 20000538 <HostCtl>
    186e:	53898993          	addi	s3,s3,1336
    1872:	9a4a                	add	s4,s4,s2
    1874:	024a4783          	lbu	a5,36(s4)
    1878:	020a4703          	lbu	a4,32(s4)
    187c:	00e7f963          	bgeu	a5,a4,188e <USBH_MainDeal+0x3be>
    1880:	4b01                	li	s6,0
    1882:	207c                	lbu	a5,6(s0)
    1884:	24fb6363          	bltu	s6,a5,1aca <USBH_MainDeal+0x5fa>
    1888:	6105                	addi	sp,sp,32
    188a:	8f3fe06f          	j	17c <__riscv_restore_12>
    188e:	02e7f7b3          	remu	a5,a5,a4
    1892:	2028                	lbu	a0,2(s0)
    1894:	0971                	addi	s2,s2,28
    1896:	8b418b13          	addi	s6,gp,-1868 # 20000124 <Com_Buf>
    189a:	02fa0223          	sb	a5,36(s4)
    189e:	297d                	jal	1d5c <USBFSH_SetSelfAddr>
    18a0:	3028                	lbu	a0,3(s0)
    18a2:	21f9                	jal	1d70 <USBFSH_SetSelfSpeed>
    18a4:	00ba4503          	lbu	a0,11(s4)
    18a8:	01e10693          	addi	a3,sp,30
    18ac:	8b418613          	addi	a2,gp,-1868 # 20000124 <Com_Buf>
    18b0:	012985b3          	add	a1,s3,s2
    18b4:	195000ef          	jal	ra,2248 <USBFSH_GetEndpData>
    18b8:	84aa                	mv	s1,a0
    18ba:	f179                	bnez	a0,1880 <USBH_MainDeal+0x3b0>
    18bc:	000b4583          	lbu	a1,0(s6)
    18c0:	00006537          	lui	a0,0x6
    18c4:	b7050513          	addi	a0,a0,-1168 # 5b70 <_read+0x360>
    18c8:	00b10ea3          	sb	a1,29(sp)
    18cc:	4901                	li	s2,0
    18ce:	54b020ef          	jal	ra,4618 <iprintf>
    18d2:	00006bb7          	lui	s7,0x6
    18d6:	00006c37          	lui	s8,0x6
    18da:	00006cb7          	lui	s9,0x6
    18de:	00006d37          	lui	s10,0x6
    18e2:	00006db7          	lui	s11,0x6
    18e6:	207c                	lbu	a5,6(s0)
    18e8:	f8f97ce3          	bgeu	s2,a5,1880 <USBH_MainDeal+0x3b0>
    18ec:	00190b13          	addi	s6,s2,1
    18f0:	0ffb7a13          	andi	s4,s6,255
    18f4:	01d10593          	addi	a1,sp,29
    18f8:	8552                	mv	a0,s4
    18fa:	cf6ff0ef          	jal	ra,df0 <HUB_Port_PreEnum1>
    18fe:	4759                	li	a4,22
    1900:	84aa                	mv	s1,a0
    1902:	04e51563          	bne	a0,a4,194c <USBH_MainDeal+0x47c>
    1906:	4519                	li	a0,6
    1908:	02a90933          	mul	s2,s2,a0
    190c:	4705                	li	a4,1
    190e:	016717b3          	sll	a5,a4,s6
    1912:	01d14703          	lbu	a4,29(sp)
    1916:	fff7c793          	not	a5,a5
    191a:	44400613          	li	a2,1092
    191e:	8ff9                	and	a5,a5,a4
    1920:	00f10ea3          	sb	a5,29(sp)
    1924:	4581                	li	a1,0
    1926:	012407b3          	add	a5,s0,s2
    192a:	27c8                	lbu	a0,12(a5)
    192c:	44400793          	li	a5,1092
    1930:	091d                	addi	s2,s2,7
    1932:	02f50533          	mul	a0,a0,a5
    1936:	954e                	add	a0,a0,s3
    1938:	869fe0ef          	jal	ra,1a0 <memset>
    193c:	4619                	li	a2,6
    193e:	4581                	li	a1,0
    1940:	01240533          	add	a0,s0,s2
    1944:	85dfe0ef          	jal	ra,1a0 <memset>
    1948:	8952                	mv	s2,s4
    194a:	bf71                	j	18e6 <USBH_MainDeal+0x416>
    194c:	06400513          	li	a0,100
    1950:	307020ef          	jal	ra,4456 <Delay_Ms>
    1954:	01d10593          	addi	a1,sp,29
    1958:	8552                	mv	a0,s4
    195a:	d54ff0ef          	jal	ra,eae <HUB_Port_PreEnum2>
    195e:	4755                	li	a4,21
    1960:	84aa                	mv	s1,a0
    1962:	0ce51663          	bne	a0,a4,1a2e <USBH_MainDeal+0x55e>
    1966:	4799                	li	a5,6
    1968:	02f907b3          	mul	a5,s2,a5
    196c:	4705                	li	a4,1
    196e:	97a2                	add	a5,a5,s0
    1970:	b3f8                	sb	a4,7(a5)
    1972:	4721                	li	a4,8
    1974:	b7b8                	sb	a4,11(a5)
    1976:	01478623          	sb	s4,12(a5)
    197a:	4499                	li	s1,6
    197c:	029904b3          	mul	s1,s2,s1
    1980:	8b418593          	addi	a1,gp,-1868 # 20000124 <Com_Buf>
    1984:	8552                	mv	a0,s4
    1986:	e0cff0ef          	jal	ra,f92 <HUB_CheckPortSpeed>
    198a:	000067b7          	lui	a5,0x6
    198e:	85aa                	mv	a1,a0
    1990:	94a2                	add	s1,s1,s0
    1992:	a4a8                	sb	a0,10(s1)
    1994:	b8478513          	addi	a0,a5,-1148 # 5b84 <_read+0x374>
    1998:	481020ef          	jal	ra,4618 <iprintf>
    199c:	3488                	lbu	a0,9(s1)
    199e:	2e7d                	jal	1d5c <USBFSH_SetSelfAddr>
    19a0:	24a8                	lbu	a0,10(s1)
    19a2:	26f9                	jal	1d70 <USBFSH_SetSelfSpeed>
    19a4:	303c                	lbu	a5,3(s0)
    19a6:	c799                	beqz	a5,19b4 <USBH_MainDeal+0x4e4>
    19a8:	50000737          	lui	a4,0x50000
    19ac:	331c                	lbu	a5,1(a4)
    19ae:	0fb7f793          	andi	a5,a5,251
    19b2:	b31c                	sb	a5,1(a4)
    19b4:	000067b7          	lui	a5,0x6
    19b8:	b9478513          	addi	a0,a5,-1132 # 5b94 <_read+0x384>
    19bc:	571020ef          	jal	ra,472c <puts>
    19c0:	4799                	li	a5,6
    19c2:	02f907b3          	mul	a5,s2,a5
    19c6:	854a                	mv	a0,s2
    19c8:	00878613          	addi	a2,a5,8
    19cc:	00978593          	addi	a1,a5,9
    19d0:	9622                	add	a2,a2,s0
    19d2:	95a2                	add	a1,a1,s0
    19d4:	c03e                	sw	a5,0(sp)
    19d6:	deaff0ef          	jal	ra,fc0 <USBH_EnumHubPortDevice>
    19da:	84aa                	mv	s1,a0
    19dc:	4782                	lw	a5,0(sp)
    19de:	e179                	bnez	a0,1aa4 <USBH_MainDeal+0x5d4>
    19e0:	00f40b33          	add	s6,s0,a5
    19e4:	008b4703          	lbu	a4,8(s6)
    19e8:	468d                	li	a3,3
    19ea:	06d71463          	bne	a4,a3,1a52 <USBH_MainDeal+0x582>
    19ee:	85ca                	mv	a1,s2
    19f0:	ba4d8513          	addi	a0,s11,-1116 # 5ba4 <_read+0x394>
    19f4:	c03a                	sw	a4,0(sp)
    19f6:	423020ef          	jal	ra,4618 <iprintf>
    19fa:	00bb4583          	lbu	a1,11(s6)
    19fe:	00cb4503          	lbu	a0,12(s6)
    1a02:	8abff0ef          	jal	ra,12ac <USBH_EnumHidDevice>
    1a06:	84aa                	mv	s1,a0
    1a08:	4702                	lw	a4,0(sp)
    1a0a:	fd1d                	bnez	a0,1948 <USBH_MainDeal+0x478>
    1a0c:	40011537          	lui	a0,0x40011
    1a10:	00eb03a3          	sb	a4,7(s6)
    1a14:	4601                	li	a2,0
    1a16:	45a1                	li	a1,8
    1a18:	80050513          	addi	a0,a0,-2048 # 40010800 <_eusrstack+0x2000b800>
    1a1c:	60c020ef          	jal	ra,4028 <GPIO_WriteBit>
    1a20:	00006537          	lui	a0,0x6
    1a24:	bd050513          	addi	a0,a0,-1072 # 5bd0 <_read+0x3c0>
    1a28:	505020ef          	jal	ra,472c <puts>
    1a2c:	bf31                	j	1948 <USBH_MainDeal+0x478>
    1a2e:	01d14683          	lbu	a3,29(sp)
    1a32:	4705                	li	a4,1
    1a34:	016717b3          	sll	a5,a4,s6
    1a38:	fff7c793          	not	a5,a5
    1a3c:	8ff5                	and	a5,a5,a3
    1a3e:	00f10ea3          	sb	a5,29(sp)
    1a42:	4799                	li	a5,6
    1a44:	02f907b3          	mul	a5,s2,a5
    1a48:	97a2                	add	a5,a5,s0
    1a4a:	33fc                	lbu	a5,7(a5)
    1a4c:	eee79ee3          	bne	a5,a4,1948 <USBH_MainDeal+0x478>
    1a50:	b72d                	j	197a <USBH_MainDeal+0x4aa>
    1a52:	85ca                	mv	a1,s2
    1a54:	bd8b8513          	addi	a0,s7,-1064 # 5bd8 <_read+0x3c8>
    1a58:	3c1020ef          	jal	ra,4618 <iprintf>
    1a5c:	008b4783          	lbu	a5,8(s6)
    1a60:	4721                	li	a4,8
    1a62:	02e78b63          	beq	a5,a4,1a98 <USBH_MainDeal+0x5c8>
    1a66:	00f76d63          	bltu	a4,a5,1a80 <USBH_MainDeal+0x5b0>
    1a6a:	471d                	li	a4,7
    1a6c:	02e78963          	beq	a5,a4,1a9e <USBH_MainDeal+0x5ce>
    1a70:	4519                	li	a0,6
    1a72:	02a90933          	mul	s2,s2,a0
    1a76:	478d                	li	a5,3
    1a78:	9922                	add	s2,s2,s0
    1a7a:	00f903a3          	sb	a5,7(s2)
    1a7e:	b5e9                	j	1948 <USBH_MainDeal+0x478>
    1a80:	4725                	li	a4,9
    1a82:	00e78e63          	beq	a5,a4,1a9e <USBH_MainDeal+0x5ce>
    1a86:	0ff00713          	li	a4,255
    1a8a:	c08d0513          	addi	a0,s10,-1016 # 5c08 <_read+0x3f8>
    1a8e:	fee791e3          	bne	a5,a4,1a70 <USBH_MainDeal+0x5a0>
    1a92:	49b020ef          	jal	ra,472c <puts>
    1a96:	bfe9                	j	1a70 <USBH_MainDeal+0x5a0>
    1a98:	bf0c0513          	addi	a0,s8,-1040 # 5bf0 <_read+0x3e0>
    1a9c:	bfdd                	j	1a92 <USBH_MainDeal+0x5c2>
    1a9e:	bfcc8513          	addi	a0,s9,-1028 # 5bfc <_read+0x3ec>
    1aa2:	bfc5                	j	1a92 <USBH_MainDeal+0x5c2>
    1aa4:	97a2                	add	a5,a5,s0
    1aa6:	4709                	li	a4,2
    1aa8:	b3f8                	sb	a4,7(a5)
    1aaa:	000067b7          	lui	a5,0x6
    1aae:	85ca                	mv	a1,s2
    1ab0:	c1478513          	addi	a0,a5,-1004 # 5c14 <_read+0x404>
    1ab4:	365020ef          	jal	ra,4618 <iprintf>
    1ab8:	40011537          	lui	a0,0x40011
    1abc:	4605                	li	a2,1
    1abe:	45a1                	li	a1,8
    1ac0:	80050513          	addi	a0,a0,-2048 # 40010800 <_eusrstack+0x2000b800>
    1ac4:	564020ef          	jal	ra,4028 <GPIO_WriteBit>
    1ac8:	b541                	j	1948 <USBH_MainDeal+0x478>
    1aca:	4799                	li	a5,6
    1acc:	02fb07b3          	mul	a5,s6,a5
    1ad0:	468d                	li	a3,3
    1ad2:	97a2                	add	a5,a5,s0
    1ad4:	33f8                	lbu	a4,7(a5)
    1ad6:	18d71263          	bne	a4,a3,1c5a <USBH_MainDeal+0x78a>
    1ada:	2794                	lbu	a3,8(a5)
    1adc:	16e69f63          	bne	a3,a4,1c5a <USBH_MainDeal+0x78a>
    1ae0:	00c7cd03          	lbu	s10,12(a5)
    1ae4:	44400c13          	li	s8,1092
    1ae8:	4a81                	li	s5,0
    1aea:	038d0c33          	mul	s8,s10,s8
    1aee:	018987b3          	add	a5,s3,s8
    1af2:	c262                	sw	s8,4(sp)
    1af4:	c43e                	sw	a5,8(sp)
    1af6:	47a2                	lw	a5,8(sp)
    1af8:	239c                	lbu	a5,0(a5)
    1afa:	16faf063          	bgeu	s5,a5,1c5a <USBH_MainDeal+0x78a>
    1afe:	11000c93          	li	s9,272
    1b02:	039a8cb3          	mul	s9,s5,s9
    1b06:	4b99                	li	s7,6
    1b08:	084c0793          	addi	a5,s8,132
    1b0c:	4a01                	li	s4,0
    1b0e:	037b0bb3          	mul	s7,s6,s7
    1b12:	97e6                	add	a5,a5,s9
    1b14:	97ce                	add	a5,a5,s3
    1b16:	c03e                	sw	a5,0(sp)
    1b18:	4792                	lw	a5,4(sp)
    1b1a:	00fc8933          	add	s2,s9,a5
    1b1e:	994e                	add	s2,s2,s3
    1b20:	9ba2                	add	s7,s7,s0
    1b22:	a8ed                	j	1c1c <USBH_MainDeal+0x74c>
    1b24:	01490733          	add	a4,s2,s4
    1b28:	02474783          	lbu	a5,36(a4) # 50000024 <_eusrstack+0x2fffb024>
    1b2c:	02074683          	lbu	a3,32(a4)
    1b30:	0ed7e363          	bltu	a5,a3,1c16 <USBH_MainDeal+0x746>
    1b34:	02d7f7b3          	remu	a5,a5,a3
    1b38:	009bc503          	lbu	a0,9(s7)
    1b3c:	02f70223          	sb	a5,36(a4)
    1b40:	2c31                	jal	1d5c <USBFSH_SetSelfAddr>
    1b42:	00abc503          	lbu	a0,10(s7)
    1b46:	242d                	jal	1d70 <USBFSH_SetSelfSpeed>
    1b48:	303c                	lbu	a5,3(s0)
    1b4a:	c799                	beqz	a5,1b58 <USBH_MainDeal+0x688>
    1b4c:	50000737          	lui	a4,0x50000
    1b50:	331c                	lbu	a5,1(a4)
    1b52:	0fb7f793          	andi	a5,a5,251
    1b56:	b31c                	sb	a5,1(a4)
    1b58:	014907b3          	add	a5,s2,s4
    1b5c:	01cc0593          	addi	a1,s8,28
    1b60:	95e6                	add	a1,a1,s9
    1b62:	37a8                	lbu	a0,11(a5)
    1b64:	95d2                	add	a1,a1,s4
    1b66:	01e10693          	addi	a3,sp,30
    1b6a:	8b418613          	addi	a2,gp,-1868 # 20000124 <Com_Buf>
    1b6e:	95ce                	add	a1,a1,s3
    1b70:	6d8000ef          	jal	ra,2248 <USBFSH_GetEndpData>
    1b74:	84aa                	mv	s1,a0
    1b76:	0c051e63          	bnez	a0,1c52 <USBH_MainDeal+0x782>
    1b7a:	87b0                	lhu	a2,30(sp)
    1b7c:	4502                	lw	a0,0(sp)
    1b7e:	8b418593          	addi	a1,gp,-1868 # 20000124 <Com_Buf>
    1b82:	10c90823          	sb	a2,272(s2)
    1b86:	0c8020ef          	jal	ra,3c4e <FifoWrite>
    1b8a:	00006537          	lui	a0,0x6
    1b8e:	85ea                	mv	a1,s10
    1b90:	b0c50513          	addi	a0,a0,-1268 # 5b0c <_read+0x2fc>
    1b94:	285020ef          	jal	ra,4618 <iprintf>
    1b98:	08895583          	lhu	a1,136(s2)
    1b9c:	00006537          	lui	a0,0x6
    1ba0:	b1850513          	addi	a0,a0,-1256 # 5b18 <_read+0x308>
    1ba4:	275020ef          	jal	ra,4618 <iprintf>
    1ba8:	08a95583          	lhu	a1,138(s2)
    1bac:	00006537          	lui	a0,0x6
    1bb0:	b2c50513          	addi	a0,a0,-1236 # 5b2c <_read+0x31c>
    1bb4:	265020ef          	jal	ra,4618 <iprintf>
    1bb8:	04695583          	lhu	a1,70(s2)
    1bbc:	00006537          	lui	a0,0x6
    1bc0:	b4050513          	addi	a0,a0,-1216 # 5b40 <_read+0x330>
    1bc4:	898d                	andi	a1,a1,3
    1bc6:	253020ef          	jal	ra,4618 <iprintf>
    1bca:	87ac                	lhu	a1,30(sp)
    1bcc:	00006537          	lui	a0,0x6
    1bd0:	b5850513          	addi	a0,a0,-1192 # 5b58 <_read+0x348>
    1bd4:	245020ef          	jal	ra,4618 <iprintf>
    1bd8:	4781                	li	a5,0
    1bda:	87b8                	lhu	a4,30(sp)
    1bdc:	04e7eb63          	bltu	a5,a4,1c32 <USBH_MainDeal+0x762>
    1be0:	00006537          	lui	a0,0x6
    1be4:	9b450513          	addi	a0,a0,-1612 # 59b4 <_read+0x1a4>
    1be8:	345020ef          	jal	ra,472c <puts>
    1bec:	00494703          	lbu	a4,4(s2)
    1bf0:	4785                	li	a5,1
    1bf2:	02f71263          	bne	a4,a5,1c16 <USBH_MainDeal+0x746>
    1bf6:	87b4                	lhu	a3,30(sp)
    1bf8:	8b418613          	addi	a2,gp,-1868 # 20000124 <Com_Buf>
    1bfc:	85d6                	mv	a1,s5
    1bfe:	856a                	mv	a0,s10
    1c00:	d6eff0ef          	jal	ra,116e <KB_AnalyzeKeyValue>
    1c04:	04494783          	lbu	a5,68(s2)
    1c08:	c799                	beqz	a5,1c16 <USBH_MainDeal+0x746>
    1c0a:	00bbc583          	lbu	a1,11(s7)
    1c0e:	8656                	mv	a2,s5
    1c10:	856a                	mv	a0,s10
    1c12:	dfeff0ef          	jal	ra,1210 <KB_SetReport>
    1c16:	0a05                	addi	s4,s4,1
    1c18:	0ffa7a13          	andi	s4,s4,255
    1c1c:	00a94783          	lbu	a5,10(s2)
    1c20:	f0fa62e3          	bltu	s4,a5,1b24 <USBH_MainDeal+0x654>
    1c24:	47d9                	li	a5,22
    1c26:	02f48963          	beq	s1,a5,1c58 <USBH_MainDeal+0x788>
    1c2a:	0a85                	addi	s5,s5,1
    1c2c:	0ffafa93          	andi	s5,s5,255
    1c30:	b5d9                	j	1af6 <USBH_MainDeal+0x626>
    1c32:	8b418713          	addi	a4,gp,-1868 # 20000124 <Com_Buf>
    1c36:	973e                	add	a4,a4,a5
    1c38:	230c                	lbu	a1,0(a4)
    1c3a:	c63e                	sw	a5,12(sp)
    1c3c:	000067b7          	lui	a5,0x6
    1c40:	9d078513          	addi	a0,a5,-1584 # 59d0 <_read+0x1c0>
    1c44:	1d5020ef          	jal	ra,4618 <iprintf>
    1c48:	47b2                	lw	a5,12(sp)
    1c4a:	0785                	addi	a5,a5,1
    1c4c:	07c2                	slli	a5,a5,0x10
    1c4e:	83c1                	srli	a5,a5,0x10
    1c50:	b769                	j	1bda <USBH_MainDeal+0x70a>
    1c52:	47d9                	li	a5,22
    1c54:	fcf511e3          	bne	a0,a5,1c16 <USBH_MainDeal+0x746>
    1c58:	44d9                	li	s1,22
    1c5a:	0b05                	addi	s6,s6,1
    1c5c:	0ffb7b13          	andi	s6,s6,255
    1c60:	b10d                	j	1882 <USBH_MainDeal+0x3b2>

00001c62 <USBFSH_SetSelfSpeed.part.0>:
    1c62:	50000737          	lui	a4,0x50000
    1c66:	231c                	lbu	a5,0(a4)
    1c68:	0bf7f793          	andi	a5,a5,191
    1c6c:	a31c                	sb	a5,0(a4)
    1c6e:	331c                	lbu	a5,1(a4)
    1c70:	0fb7f793          	andi	a5,a5,251
    1c74:	b31c                	sb	a5,1(a4)
    1c76:	3b7e                	lhu	a5,54(a4)
    1c78:	07c2                	slli	a5,a5,0x10
    1c7a:	83c1                	srli	a5,a5,0x10
    1c7c:	bff7f793          	andi	a5,a5,-1025
    1c80:	07c2                	slli	a5,a5,0x10
    1c82:	83c1                	srli	a5,a5,0x10
    1c84:	bb7e                	sh	a5,54(a4)
    1c86:	8082                	ret

00001c88 <USBFS_RCC_Init>:
    1c88:	ce8fe2ef          	jal	t0,170 <__riscv_save_0>
    1c8c:	200007b7          	lui	a5,0x20000
    1c90:	0747a703          	lw	a4,116(a5) # 20000074 <SystemCoreClock>
    1c94:	089547b7          	lui	a5,0x8954
    1c98:	40078793          	addi	a5,a5,1024 # 8954400 <_data_lma+0x894e48c>
    1c9c:	4509                	li	a0,2
    1c9e:	02f70063          	beq	a4,a5,1cbe <USBFS_RCC_Init+0x36>
    1ca2:	05b8e7b7          	lui	a5,0x5b8e
    1ca6:	80078793          	addi	a5,a5,-2048 # 5b8d800 <_data_lma+0x5b8788c>
    1caa:	4505                	li	a0,1
    1cac:	00f70963          	beq	a4,a5,1cbe <USBFS_RCC_Init+0x36>
    1cb0:	02dc77b7          	lui	a5,0x2dc7
    1cb4:	c0078793          	addi	a5,a5,-1024 # 2dc6c00 <_data_lma+0x2dc0c8c>
    1cb8:	00f71563          	bne	a4,a5,1cc2 <USBFS_RCC_Init+0x3a>
    1cbc:	4501                	li	a0,0
    1cbe:	46a020ef          	jal	ra,4128 <RCC_USBCLKConfig>
    1cc2:	4585                	li	a1,1
    1cc4:	6505                	lui	a0,0x1
    1cc6:	53a020ef          	jal	ra,4200 <RCC_AHBPeriphClockCmd>
    1cca:	ccafe06f          	j	194 <__riscv_restore_0>

00001cce <USBFS_Host_Init>:
    1cce:	ca2fe2ef          	jal	t0,170 <__riscv_save_0>
    1cd2:	4785                	li	a5,1
    1cd4:	50000437          	lui	s0,0x50000
    1cd8:	02f51b63          	bne	a0,a5,1d0e <USBFS_Host_Init+0x40>
    1cdc:	4799                	li	a5,6
    1cde:	a01c                	sb	a5,0(s0)
    1ce0:	4529                	li	a0,10
    1ce2:	73e020ef          	jal	ra,4420 <Delay_Us>
    1ce6:	f8900793          	li	a5,-119
    1cea:	00040023          	sb	zero,0(s0) # 50000000 <_eusrstack+0x2fffb000>
    1cee:	a01c                	sb	a5,0(s0)
    1cf0:	04800793          	li	a5,72
    1cf4:	b45c                	sb	a5,13(s0)
    1cf6:	200027b7          	lui	a5,0x20002
    1cfa:	aac78793          	addi	a5,a5,-1364 # 20001aac <USBFS_RX_Buf>
    1cfe:	cc1c                	sw	a5,24(s0)
    1d00:	200027b7          	lui	a5,0x20002
    1d04:	aec78793          	addi	a5,a5,-1300 # 20001aec <USBFS_TX_Buf>
    1d08:	cc5c                	sw	a5,28(s0)
    1d0a:	c8afe06f          	j	194 <__riscv_restore_0>
    1d0e:	4799                	li	a5,6
    1d10:	a01c                	sb	a5,0(s0)
    1d12:	4529                	li	a0,10
    1d14:	70c020ef          	jal	ra,4420 <Delay_Us>
    1d18:	00040023          	sb	zero,0(s0)
    1d1c:	b7fd                	j	1d0a <USBFS_Host_Init+0x3c>

00001d1e <USBFSH_CheckRootHubPortStatus>:
    1d1e:	50000737          	lui	a4,0x50000
    1d22:	237c                	lbu	a5,6(a4)
    1d24:	8b85                	andi	a5,a5,1
    1d26:	c385                	beqz	a5,1d46 <USBFSH_CheckRootHubPortStatus+0x28>
    1d28:	4785                	li	a5,1
    1d2a:	a37c                	sb	a5,6(a4)
    1d2c:	3354                	lbu	a3,5(a4)
    1d2e:	4781                	li	a5,0
    1d30:	8a85                	andi	a3,a3,1
    1d32:	ca99                	beqz	a3,1d48 <USBFSH_CheckRootHubPortStatus+0x2a>
    1d34:	4785                	li	a5,1
    1d36:	c909                	beqz	a0,1d48 <USBFSH_CheckRootHubPortStatus+0x2a>
    1d38:	4789                	li	a5,2
    1d3a:	00f50663          	beq	a0,a5,1d46 <USBFSH_CheckRootHubPortStatus+0x28>
    1d3e:	3318                	lbu	a4,1(a4)
    1d40:	4785                	li	a5,1
    1d42:	8b05                	andi	a4,a4,1
    1d44:	c311                	beqz	a4,1d48 <USBFSH_CheckRootHubPortStatus+0x2a>
    1d46:	4789                	li	a5,2
    1d48:	853e                	mv	a0,a5
    1d4a:	8082                	ret

00001d4c <USBFSH_CheckRootHubPortSpeed>:
    1d4c:	500007b7          	lui	a5,0x50000
    1d50:	33c8                	lbu	a0,5(a5)
    1d52:	8105                	srli	a0,a0,0x1
    1d54:	00154513          	xori	a0,a0,1
    1d58:	8905                	andi	a0,a0,1
    1d5a:	8082                	ret

00001d5c <USBFSH_SetSelfAddr>:
    1d5c:	50000737          	lui	a4,0x50000
    1d60:	333c                	lbu	a5,3(a4)
    1d62:	07f57513          	andi	a0,a0,127
    1d66:	0807f793          	andi	a5,a5,128
    1d6a:	8fc9                	or	a5,a5,a0
    1d6c:	b33c                	sb	a5,3(a4)
    1d6e:	8082                	ret

00001d70 <USBFSH_SetSelfSpeed>:
    1d70:	4785                	li	a5,1
    1d72:	00f51763          	bne	a0,a5,1d80 <USBFSH_SetSelfSpeed+0x10>
    1d76:	bfafe2ef          	jal	t0,170 <__riscv_save_0>
    1d7a:	35e5                	jal	1c62 <USBFSH_SetSelfSpeed.part.0>
    1d7c:	c18fe06f          	j	194 <__riscv_restore_0>
    1d80:	500007b7          	lui	a5,0x50000
    1d84:	2398                	lbu	a4,0(a5)
    1d86:	04076713          	ori	a4,a4,64
    1d8a:	a398                	sb	a4,0(a5)
    1d8c:	3398                	lbu	a4,1(a5)
    1d8e:	00476713          	ori	a4,a4,4
    1d92:	b398                	sb	a4,1(a5)
    1d94:	3bfa                	lhu	a4,54(a5)
    1d96:	40076713          	ori	a4,a4,1024
    1d9a:	bbfa                	sh	a4,54(a5)
    1d9c:	8082                	ret

00001d9e <USBFSH_ResetRootHubPort>:
    1d9e:	bd2fe2ef          	jal	t0,170 <__riscv_save_0>
    1da2:	842a                	mv	s0,a0
    1da4:	4501                	li	a0,0
    1da6:	3f5d                	jal	1d5c <USBFSH_SetSelfAddr>
    1da8:	3d6d                	jal	1c62 <USBFSH_SetSelfSpeed.part.0>
    1daa:	4785                	li	a5,1
    1dac:	0087ec63          	bltu	a5,s0,1dc4 <USBFSH_ResetRootHubPort+0x26>
    1db0:	50000737          	lui	a4,0x50000
    1db4:	331c                	lbu	a5,1(a4)
    1db6:	0027e793          	ori	a5,a5,2
    1dba:	b31c                	sb	a5,1(a4)
    1dbc:	e811                	bnez	s0,1dd0 <USBFSH_ResetRootHubPort+0x32>
    1dbe:	452d                	li	a0,11
    1dc0:	696020ef          	jal	ra,4456 <Delay_Ms>
    1dc4:	50000737          	lui	a4,0x50000
    1dc8:	331c                	lbu	a5,1(a4)
    1dca:	0fd7f793          	andi	a5,a5,253
    1dce:	b31c                	sb	a5,1(a4)
    1dd0:	4509                	li	a0,2
    1dd2:	684020ef          	jal	ra,4456 <Delay_Ms>
    1dd6:	500007b7          	lui	a5,0x50000
    1dda:	23f8                	lbu	a4,6(a5)
    1ddc:	8b05                	andi	a4,a4,1
    1dde:	c711                	beqz	a4,1dea <USBFSH_ResetRootHubPort+0x4c>
    1de0:	33d8                	lbu	a4,5(a5)
    1de2:	8b05                	andi	a4,a4,1
    1de4:	c319                	beqz	a4,1dea <USBFSH_ResetRootHubPort+0x4c>
    1de6:	4705                	li	a4,1
    1de8:	a3f8                	sb	a4,6(a5)
    1dea:	baafe06f          	j	194 <__riscv_restore_0>

00001dee <USBFSH_EnableRootHubPort>:
    1dee:	50000737          	lui	a4,0x50000
    1df2:	335c                	lbu	a5,5(a4)
    1df4:	8b85                	andi	a5,a5,1
    1df6:	cb85                	beqz	a5,1e26 <USBFSH_EnableRootHubPort+0x38>
    1df8:	b78fe2ef          	jal	t0,170 <__riscv_save_0>
    1dfc:	331c                	lbu	a5,1(a4)
    1dfe:	8b85                	andi	a5,a5,1
    1e00:	e791                	bnez	a5,1e0c <USBFSH_EnableRootHubPort+0x1e>
    1e02:	842a                	mv	s0,a0
    1e04:	37a1                	jal	1d4c <USBFSH_CheckRootHubPortSpeed>
    1e06:	a008                	sb	a0,0(s0)
    1e08:	e111                	bnez	a0,1e0c <USBFSH_EnableRootHubPort+0x1e>
    1e0a:	379d                	jal	1d70 <USBFSH_SetSelfSpeed>
    1e0c:	500007b7          	lui	a5,0x50000
    1e10:	3398                	lbu	a4,1(a5)
    1e12:	4501                	li	a0,0
    1e14:	00176713          	ori	a4,a4,1
    1e18:	b398                	sb	a4,1(a5)
    1e1a:	3bfa                	lhu	a4,54(a5)
    1e1c:	00476713          	ori	a4,a4,4
    1e20:	bbfa                	sh	a4,54(a5)
    1e22:	b72fe06f          	j	194 <__riscv_restore_0>
    1e26:	4559                	li	a0,22
    1e28:	8082                	ret

00001e2a <USBFSH_Transact>:
    1e2a:	b1efe2ef          	jal	t0,148 <__riscv_save_10>
    1e2e:	500007b7          	lui	a5,0x50000
    1e32:	02b78da3          	sb	a1,59(a5) # 5000003b <_eusrstack+0x2fffb03b>
    1e36:	6a41                	lui	s4,0x10
    1e38:	8b2a                	mv	s6,a0
    1e3a:	8932                	mv	s2,a2
    1e3c:	02b78f23          	sb	a1,62(a5)
    1e40:	00455993          	srli	s3,a0,0x4
    1e44:	4481                	li	s1,0
    1e46:	50000437          	lui	s0,0x50000
    1e4a:	4b89                	li	s7,2
    1e4c:	4c39                	li	s8,14
    1e4e:	4aa9                	li	s5,10
    1e50:	4ca5                	li	s9,9
    1e52:	1a7d                	addi	s4,s4,-1
    1e54:	03640c23          	sb	s6,56(s0) # 50000038 <_eusrstack+0x2fffb038>
    1e58:	01740323          	sb	s7,6(s0)
    1e5c:	3e800d13          	li	s10,1000
    1e60:	207c                	lbu	a5,6(s0)
    1e62:	8b89                	andi	a5,a5,2
    1e64:	eb91                	bnez	a5,1e78 <USBFSH_Transact+0x4e>
    1e66:	1d7d                	addi	s10,s10,-1
    1e68:	0d42                	slli	s10,s10,0x10
    1e6a:	4505                	li	a0,1
    1e6c:	010d5d13          	srli	s10,s10,0x10
    1e70:	5b0020ef          	jal	ra,4420 <Delay_Us>
    1e74:	fe0d16e3          	bnez	s10,1e60 <USBFSH_Transact+0x36>
    1e78:	02040c23          	sb	zero,56(s0)
    1e7c:	207c                	lbu	a5,6(s0)
    1e7e:	8b89                	andi	a5,a5,2
    1e80:	e781                	bnez	a5,1e88 <USBFSH_Transact+0x5e>
    1e82:	0fe00513          	li	a0,254
    1e86:	a89d                	j	1efc <USBFSH_Transact+0xd2>
    1e88:	307c                	lbu	a5,7(s0)
    1e8a:	0407f793          	andi	a5,a5,64
    1e8e:	efb5                	bnez	a5,1f0a <USBFSH_Transact+0xe0>
    1e90:	307c                	lbu	a5,7(s0)
    1e92:	0ff7f793          	andi	a5,a5,255
    1e96:	00f7f513          	andi	a0,a5,15
    1e9a:	07850a63          	beq	a0,s8,1f0e <USBFSH_Transact+0xe4>
    1e9e:	05551463          	bne	a0,s5,1ee6 <USBFSH_Transact+0xbc>
    1ea2:	06090963          	beqz	s2,1f14 <USBFSH_Transact+0xea>
    1ea6:	01490663          	beq	s2,s4,1eb2 <USBFSH_Transact+0x88>
    1eaa:	197d                	addi	s2,s2,-1
    1eac:	0942                	slli	s2,s2,0x10
    1eae:	01095913          	srli	s2,s2,0x10
    1eb2:	14fd                	addi	s1,s1,-1
    1eb4:	0ff4f493          	andi	s1,s1,255
    1eb8:	4551                	li	a0,20
    1eba:	566020ef          	jal	ra,4420 <Delay_Us>
    1ebe:	207c                	lbu	a5,6(s0)
    1ec0:	8b85                	andi	a5,a5,1
    1ec2:	cb91                	beqz	a5,1ed6 <USBFSH_Transact+0xac>
    1ec4:	0c800513          	li	a0,200
    1ec8:	558020ef          	jal	ra,4420 <Delay_Us>
    1ecc:	301c                	lbu	a5,1(s0)
    1ece:	8b85                	andi	a5,a5,1
    1ed0:	c7a9                	beqz	a5,1f1a <USBFSH_Transact+0xf0>
    1ed2:	4785                	li	a5,1
    1ed4:	a07c                	sb	a5,6(s0)
    1ed6:	0485                	addi	s1,s1,1
    1ed8:	0ff4f493          	andi	s1,s1,255
    1edc:	f7549ce3          	bne	s1,s5,1e54 <USBFSH_Transact+0x2a>
    1ee0:	02000513          	li	a0,32
    1ee4:	a821                	j	1efc <USBFSH_Transact+0xd2>
    1ee6:	01998d63          	beq	s3,s9,1f00 <USBFSH_Transact+0xd6>
    1eea:	47b5                	li	a5,13
    1eec:	00f98563          	beq	s3,a5,1ef6 <USBFSH_Transact+0xcc>
    1ef0:	4785                	li	a5,1
    1ef2:	f8f998e3          	bne	s3,a5,1e82 <USBFSH_Transact+0x58>
    1ef6:	d169                	beqz	a0,1eb8 <USBFSH_Transact+0x8e>
    1ef8:	02056513          	ori	a0,a0,32
    1efc:	a84fe06f          	j	180 <__riscv_restore_10>
    1f00:	8b9d                	andi	a5,a5,7
    1f02:	470d                	li	a4,3
    1f04:	fee799e3          	bne	a5,a4,1ef6 <USBFSH_Transact+0xcc>
    1f08:	bf45                	j	1eb8 <USBFSH_Transact+0x8e>
    1f0a:	4501                	li	a0,0
    1f0c:	bfc5                	j	1efc <USBFSH_Transact+0xd2>
    1f0e:	02e00513          	li	a0,46
    1f12:	b7ed                	j	1efc <USBFSH_Transact+0xd2>
    1f14:	02a00513          	li	a0,42
    1f18:	b7d5                	j	1efc <USBFSH_Transact+0xd2>
    1f1a:	4559                	li	a0,22
    1f1c:	b7c5                	j	1efc <USBFSH_Transact+0xd2>

00001f1e <USBFSH_CtrlTransfer>:
    1f1e:	a2afe2ef          	jal	t0,148 <__riscv_save_10>
    1f22:	89aa                	mv	s3,a0
    1f24:	84b2                	mv	s1,a2
    1f26:	06400513          	li	a0,100
    1f2a:	892e                	mv	s2,a1
    1f2c:	4f4020ef          	jal	ra,4420 <Delay_Us>
    1f30:	c099                	beqz	s1,1f36 <USBFSH_CtrlTransfer+0x18>
    1f32:	00049023          	sh	zero,0(s1)
    1f36:	50000437          	lui	s0,0x50000
    1f3a:	47a1                	li	a5,8
    1f3c:	6a89                	lui	s5,0x2
    1f3e:	bc5e                	sh	a5,60(s0)
    1f40:	710a8613          	addi	a2,s5,1808 # 2710 <parse_report_descriptor+0x234>
    1f44:	4581                	li	a1,0
    1f46:	0d000513          	li	a0,208
    1f4a:	35c5                	jal	1e2a <USBFSH_Transact>
    1f4c:	14051463          	bnez	a0,2094 <USBFSH_CtrlTransfer+0x176>
    1f50:	4791                	li	a5,4
    1f52:	02f40da3          	sb	a5,59(s0) # 5000003b <_eusrstack+0x2fffb03b>
    1f56:	20002b37          	lui	s6,0x20002
    1f5a:	02f40f23          	sb	a5,62(s0)
    1f5e:	aecb0793          	addi	a5,s6,-1300 # 20001aec <USBFS_TX_Buf>
    1f62:	23e2                	lhu	s0,6(a5)
    1f64:	aecb0b13          	addi	s6,s6,-1300
    1f68:	0e040863          	beqz	s0,2058 <USBFSH_CtrlTransfer+0x13a>
    1f6c:	0e090663          	beqz	s2,2058 <USBFSH_CtrlTransfer+0x13a>
    1f70:	00078783          	lb	a5,0(a5)
    1f74:	0607c263          	bltz	a5,1fd8 <USBFSH_CtrlTransfer+0xba>
    1f78:	8bce                	mv	s7,s3
    1f7a:	09c2                	slli	s3,s3,0x10
    1f7c:	0109d993          	srli	s3,s3,0x10
    1f80:	50000a37          	lui	s4,0x50000
    1f84:	710a8a93          	addi	s5,s5,1808
    1f88:	06400513          	li	a0,100
    1f8c:	494020ef          	jal	ra,4420 <Delay_Us>
    1f90:	87de                	mv	a5,s7
    1f92:	01347363          	bgeu	s0,s3,1f98 <USBFSH_CtrlTransfer+0x7a>
    1f96:	87a2                	mv	a5,s0
    1f98:	02fa1e23          	sh	a5,60(s4) # 5000003c <_eusrstack+0x2fffb03c>
    1f9c:	4781                	li	a5,0
    1f9e:	03ca5703          	lhu	a4,60(s4)
    1fa2:	10e79363          	bne	a5,a4,20a8 <USBFSH_CtrlTransfer+0x18a>
    1fa6:	03ea4583          	lbu	a1,62(s4)
    1faa:	8656                	mv	a2,s5
    1fac:	4541                	li	a0,16
    1fae:	3db5                	jal	1e2a <USBFSH_Transact>
    1fb0:	e175                	bnez	a0,2094 <USBFSH_CtrlTransfer+0x176>
    1fb2:	03ea4783          	lbu	a5,62(s4)
    1fb6:	0047c793          	xori	a5,a5,4
    1fba:	02fa0f23          	sb	a5,62(s4)
    1fbe:	03ca5783          	lhu	a5,60(s4)
    1fc2:	8c1d                	sub	s0,s0,a5
    1fc4:	0442                	slli	s0,s0,0x10
    1fc6:	8041                	srli	s0,s0,0x10
    1fc8:	c491                	beqz	s1,1fd4 <USBFSH_CtrlTransfer+0xb6>
    1fca:	03ca5783          	lhu	a5,60(s4)
    1fce:	209a                	lhu	a4,0(s1)
    1fd0:	97ba                	add	a5,a5,a4
    1fd2:	a09e                	sh	a5,0(s1)
    1fd4:	f855                	bnez	s0,1f88 <USBFSH_CtrlTransfer+0x6a>
    1fd6:	a049                	j	2058 <USBFSH_CtrlTransfer+0x13a>
    1fd8:	20002b37          	lui	s6,0x20002
    1fdc:	50000a37          	lui	s4,0x50000
    1fe0:	710a8a93          	addi	s5,s5,1808
    1fe4:	aacb0b13          	addi	s6,s6,-1364 # 20001aac <USBFS_RX_Buf>
    1fe8:	19fd                	addi	s3,s3,-1
    1fea:	06400513          	li	a0,100
    1fee:	432020ef          	jal	ra,4420 <Delay_Us>
    1ff2:	03ba4583          	lbu	a1,59(s4) # 5000003b <_eusrstack+0x2fffb03b>
    1ff6:	8656                	mv	a2,s5
    1ff8:	09000513          	li	a0,144
    1ffc:	353d                	jal	1e2a <USBFSH_Transact>
    1ffe:	e959                	bnez	a0,2094 <USBFSH_CtrlTransfer+0x176>
    2000:	03ba4783          	lbu	a5,59(s4)
    2004:	0047c793          	xori	a5,a5,4
    2008:	02fa0da3          	sb	a5,59(s4)
    200c:	008a5703          	lhu	a4,8(s4)
    2010:	87a2                	mv	a5,s0
    2012:	00877663          	bgeu	a4,s0,201e <USBFSH_CtrlTransfer+0x100>
    2016:	008a5783          	lhu	a5,8(s4)
    201a:	07c2                	slli	a5,a5,0x10
    201c:	83c1                	srli	a5,a5,0x10
    201e:	8c1d                	sub	s0,s0,a5
    2020:	0442                	slli	s0,s0,0x10
    2022:	8041                	srli	s0,s0,0x10
    2024:	c481                	beqz	s1,202c <USBFSH_CtrlTransfer+0x10e>
    2026:	209a                	lhu	a4,0(s1)
    2028:	973e                	add	a4,a4,a5
    202a:	a09a                	sh	a4,0(s1)
    202c:	4701                	li	a4,0
    202e:	01071693          	slli	a3,a4,0x10
    2032:	82c1                	srli	a3,a3,0x10
    2034:	06d79263          	bne	a5,a3,2098 <USBFSH_CtrlTransfer+0x17a>
    2038:	993e                	add	s2,s2,a5
    203a:	008a5783          	lhu	a5,8(s4)
    203e:	07c2                	slli	a5,a5,0x10
    2040:	83c1                	srli	a5,a5,0x10
    2042:	c799                	beqz	a5,2050 <USBFSH_CtrlTransfer+0x132>
    2044:	008a5783          	lhu	a5,8(s4)
    2048:	00f9f7b3          	and	a5,s3,a5
    204c:	e391                	bnez	a5,2050 <USBFSH_CtrlTransfer+0x132>
    204e:	fc51                	bnez	s0,1fea <USBFSH_CtrlTransfer+0xcc>
    2050:	500007b7          	lui	a5,0x50000
    2054:	02079e23          	sh	zero,60(a5) # 5000003c <_eusrstack+0x2fffb03c>
    2058:	06400513          	li	a0,100
    205c:	3c4020ef          	jal	ra,4420 <Delay_Us>
    2060:	500007b7          	lui	a5,0x50000
    2064:	3fde                	lhu	a5,60(a5)
    2066:	09000513          	li	a0,144
    206a:	07c2                	slli	a5,a5,0x10
    206c:	83c1                	srli	a5,a5,0x10
    206e:	e391                	bnez	a5,2072 <USBFSH_CtrlTransfer+0x154>
    2070:	4541                	li	a0,16
    2072:	6609                	lui	a2,0x2
    2074:	71060613          	addi	a2,a2,1808 # 2710 <parse_report_descriptor+0x234>
    2078:	4591                	li	a1,4
    207a:	3b45                	jal	1e2a <USBFSH_Transact>
    207c:	ed01                	bnez	a0,2094 <USBFSH_CtrlTransfer+0x176>
    207e:	50000737          	lui	a4,0x50000
    2082:	3f5e                	lhu	a5,60(a4)
    2084:	07c2                	slli	a5,a5,0x10
    2086:	83c1                	srli	a5,a5,0x10
    2088:	c791                	beqz	a5,2094 <USBFSH_CtrlTransfer+0x176>
    208a:	271e                	lhu	a5,8(a4)
    208c:	07c2                	slli	a5,a5,0x10
    208e:	83c1                	srli	a5,a5,0x10
    2090:	c391                	beqz	a5,2094 <USBFSH_CtrlTransfer+0x176>
    2092:	455d                	li	a0,23
    2094:	8ecfe06f          	j	180 <__riscv_restore_10>
    2098:	00eb06b3          	add	a3,s6,a4
    209c:	2290                	lbu	a2,0(a3)
    209e:	00e906b3          	add	a3,s2,a4
    20a2:	0705                	addi	a4,a4,1
    20a4:	a290                	sb	a2,0(a3)
    20a6:	b761                	j	202e <USBFSH_CtrlTransfer+0x110>
    20a8:	00094683          	lbu	a3,0(s2)
    20ac:	00fb0733          	add	a4,s6,a5
    20b0:	0785                	addi	a5,a5,1
    20b2:	07c2                	slli	a5,a5,0x10
    20b4:	a314                	sb	a3,0(a4)
    20b6:	0905                	addi	s2,s2,1
    20b8:	83c1                	srli	a5,a5,0x10
    20ba:	b5d5                	j	1f9e <USBFSH_CtrlTransfer+0x80>

000020bc <USBFSH_GetDeviceDescr>:
    20bc:	8b4fe2ef          	jal	t0,170 <__riscv_save_0>
    20c0:	82418413          	addi	s0,gp,-2012 # 20000094 <SetupGetDevDesc>
    20c4:	47a1                	li	a5,8
    20c6:	4018                	lw	a4,0(s0)
    20c8:	a11c                	sb	a5,0(a0)
    20ca:	200027b7          	lui	a5,0x20002
    20ce:	aec78793          	addi	a5,a5,-1300 # 20001aec <USBFS_TX_Buf>
    20d2:	c398                	sw	a4,0(a5)
    20d4:	4058                	lw	a4,4(s0)
    20d6:	84aa                	mv	s1,a0
    20d8:	1141                	addi	sp,sp,-16
    20da:	c3d8                	sw	a4,4(a5)
    20dc:	2108                	lbu	a0,0(a0)
    20de:	00e10613          	addi	a2,sp,14
    20e2:	892e                	mv	s2,a1
    20e4:	3d2d                	jal	1f1e <USBFSH_CtrlTransfer>
    20e6:	e909                	bnez	a0,20f8 <USBFSH_GetDeviceDescr+0x3c>
    20e8:	00794783          	lbu	a5,7(s2)
    20ec:	207a                	lhu	a4,6(s0)
    20ee:	a09c                	sb	a5,0(s1)
    20f0:	873c                	lhu	a5,14(sp)
    20f2:	00e7f363          	bgeu	a5,a4,20f8 <USBFSH_GetDeviceDescr+0x3c>
    20f6:	455d                	li	a0,23
    20f8:	0141                	addi	sp,sp,16
    20fa:	89afe06f          	j	194 <__riscv_restore_0>

000020fe <USBFSH_GetConfigDescr>:
    20fe:	858fe2ef          	jal	t0,156 <__riscv_save_4>
    2102:	81c18713          	addi	a4,gp,-2020 # 2000008c <SetupGetCfgDesc>
    2106:	89b2                	mv	s3,a2
    2108:	4310                	lw	a2,0(a4)
    210a:	4358                	lw	a4,4(a4)
    210c:	20002437          	lui	s0,0x20002
    2110:	aec40793          	addi	a5,s0,-1300 # 20001aec <USBFS_TX_Buf>
    2114:	1141                	addi	sp,sp,-16
    2116:	c390                	sw	a2,0(a5)
    2118:	c3d8                	sw	a4,4(a5)
    211a:	8636                	mv	a2,a3
    211c:	8a2a                	mv	s4,a0
    211e:	892e                	mv	s2,a1
    2120:	c636                	sw	a3,12(sp)
    2122:	3bf5                	jal	1f1e <USBFSH_CtrlTransfer>
    2124:	e121                	bnez	a0,2164 <USBFSH_GetConfigDescr+0x66>
    2126:	46b2                	lw	a3,12(sp)
    2128:	81c18713          	addi	a4,gp,-2020 # 2000008c <SetupGetCfgDesc>
    212c:	2372                	lhu	a2,6(a4)
    212e:	228e                	lhu	a1,0(a3)
    2130:	455d                	li	a0,23
    2132:	02c5e963          	bltu	a1,a2,2164 <USBFSH_GetConfigDescr+0x66>
    2136:	00394603          	lbu	a2,3(s2)
    213a:	00294583          	lbu	a1,2(s2)
    213e:	aec40793          	addi	a5,s0,-1300
    2142:	0622                	slli	a2,a2,0x8
    2144:	8e4d                	or	a2,a2,a1
    2146:	85b2                	mv	a1,a2
    2148:	00c9f363          	bgeu	s3,a2,214e <USBFSH_GetConfigDescr+0x50>
    214c:	85ce                	mv	a1,s3
    214e:	4310                	lw	a2,0(a4)
    2150:	4358                	lw	a4,4(a4)
    2152:	a28e                	sh	a1,0(a3)
    2154:	c390                	sw	a2,0(a5)
    2156:	c3d8                	sw	a4,4(a5)
    2158:	229a                	lhu	a4,0(a3)
    215a:	8636                	mv	a2,a3
    215c:	85ca                	mv	a1,s2
    215e:	a3fa                	sh	a4,6(a5)
    2160:	8552                	mv	a0,s4
    2162:	3b75                	jal	1f1e <USBFSH_CtrlTransfer>
    2164:	0141                	addi	sp,sp,16
    2166:	824fe06f          	j	18a <__riscv_restore_4>

0000216a <USBFSH_GetStrDescr>:
    216a:	fedfd2ef          	jal	t0,156 <__riscv_save_4>
    216e:	82c18793          	addi	a5,gp,-2004 # 2000009c <SetupGetStrDesc>
    2172:	0007aa03          	lw	s4,0(a5)
    2176:	20002437          	lui	s0,0x20002
    217a:	0047a983          	lw	s3,4(a5)
    217e:	aec40413          	addi	s0,s0,-1300 # 20001aec <USBFS_TX_Buf>
    2182:	1141                	addi	sp,sp,-16
    2184:	84b2                	mv	s1,a2
    2186:	3005e913          	ori	s2,a1,768
    218a:	01442023          	sw	s4,0(s0)
    218e:	00e10613          	addi	a2,sp,14
    2192:	85a6                	mv	a1,s1
    2194:	8aaa                	mv	s5,a0
    2196:	01342223          	sw	s3,4(s0)
    219a:	01241123          	sh	s2,2(s0)
    219e:	3341                	jal	1f1e <USBFSH_CtrlTransfer>
    21a0:	ed19                	bnez	a0,21be <USBFSH_GetStrDescr+0x54>
    21a2:	209c                	lbu	a5,0(s1)
    21a4:	00e10613          	addi	a2,sp,14
    21a8:	01442023          	sw	s4,0(s0)
    21ac:	01342223          	sw	s3,4(s0)
    21b0:	85a6                	mv	a1,s1
    21b2:	8556                	mv	a0,s5
    21b4:	877c                	sh	a5,14(sp)
    21b6:	01241123          	sh	s2,2(s0)
    21ba:	a07e                	sh	a5,6(s0)
    21bc:	338d                	jal	1f1e <USBFSH_CtrlTransfer>
    21be:	0141                	addi	sp,sp,16
    21c0:	fcbfd06f          	j	18a <__riscv_restore_4>

000021c4 <USBFSH_SetUsbAddress>:
    21c4:	fadfd2ef          	jal	t0,170 <__riscv_save_0>
    21c8:	83418713          	addi	a4,gp,-1996 # 200000a4 <SetupSetAddr>
    21cc:	4314                	lw	a3,0(a4)
    21ce:	200027b7          	lui	a5,0x20002
    21d2:	4358                	lw	a4,4(a4)
    21d4:	aec78793          	addi	a5,a5,-1300 # 20001aec <USBFS_TX_Buf>
    21d8:	c394                	sw	a3,0(a5)
    21da:	a3ae                	sh	a1,2(a5)
    21dc:	84ae                	mv	s1,a1
    21de:	c3d8                	sw	a4,4(a5)
    21e0:	4601                	li	a2,0
    21e2:	4581                	li	a1,0
    21e4:	3b2d                	jal	1f1e <USBFSH_CtrlTransfer>
    21e6:	842a                	mv	s0,a0
    21e8:	e519                	bnez	a0,21f6 <USBFSH_SetUsbAddress+0x32>
    21ea:	8526                	mv	a0,s1
    21ec:	b71ff0ef          	jal	ra,1d5c <USBFSH_SetSelfAddr>
    21f0:	4515                	li	a0,5
    21f2:	264020ef          	jal	ra,4456 <Delay_Ms>
    21f6:	8522                	mv	a0,s0
    21f8:	f9dfd06f          	j	194 <__riscv_restore_0>

000021fc <USBFSH_SetUsbConfig>:
    21fc:	f75fd2ef          	jal	t0,170 <__riscv_save_0>
    2200:	83c18713          	addi	a4,gp,-1988 # 200000ac <SetupSetConfig>
    2204:	4314                	lw	a3,0(a4)
    2206:	200027b7          	lui	a5,0x20002
    220a:	4358                	lw	a4,4(a4)
    220c:	aec78793          	addi	a5,a5,-1300 # 20001aec <USBFS_TX_Buf>
    2210:	c394                	sw	a3,0(a5)
    2212:	a3ae                	sh	a1,2(a5)
    2214:	c3d8                	sw	a4,4(a5)
    2216:	4601                	li	a2,0
    2218:	4581                	li	a1,0
    221a:	d05ff0ef          	jal	ra,1f1e <USBFSH_CtrlTransfer>
    221e:	f77fd06f          	j	194 <__riscv_restore_0>

00002222 <USBFSH_ClearEndpStall>:
    2222:	f4ffd2ef          	jal	t0,170 <__riscv_save_0>
    2226:	81418713          	addi	a4,gp,-2028 # 20000084 <SetupClearEndpStall>
    222a:	4314                	lw	a3,0(a4)
    222c:	4358                	lw	a4,4(a4)
    222e:	200027b7          	lui	a5,0x20002
    2232:	aec78793          	addi	a5,a5,-1300 # 20001aec <USBFS_TX_Buf>
    2236:	c3d8                	sw	a4,4(a5)
    2238:	a3ce                	sh	a1,4(a5)
    223a:	c394                	sw	a3,0(a5)
    223c:	4601                	li	a2,0
    223e:	4581                	li	a1,0
    2240:	cdfff0ef          	jal	ra,1f1e <USBFSH_CtrlTransfer>
    2244:	f51fd06f          	j	194 <__riscv_restore_0>

00002248 <USBFSH_GetEndpData>:
    2248:	f29fd2ef          	jal	t0,170 <__riscv_save_0>
    224c:	842e                	mv	s0,a1
    224e:	218c                	lbu	a1,0(a1)
    2250:	1141                	addi	sp,sp,-16
    2252:	8932                	mv	s2,a2
    2254:	09056513          	ori	a0,a0,144
    2258:	4601                	li	a2,0
    225a:	c636                	sw	a3,12(sp)
    225c:	bcfff0ef          	jal	ra,1e2a <USBFSH_Transact>
    2260:	84aa                	mv	s1,a0
    2262:	46b2                	lw	a3,12(sp)
    2264:	e115                	bnez	a0,2288 <USBFSH_GetEndpData+0x40>
    2266:	500007b7          	lui	a5,0x50000
    226a:	2792                	lhu	a2,8(a5)
    226c:	200025b7          	lui	a1,0x20002
    2270:	aac58593          	addi	a1,a1,-1364 # 20001aac <USBFS_RX_Buf>
    2274:	0642                	slli	a2,a2,0x10
    2276:	8241                	srli	a2,a2,0x10
    2278:	a292                	sh	a2,0(a3)
    227a:	854a                	mv	a0,s2
    227c:	2ea020ef          	jal	ra,4566 <memcpy>
    2280:	201c                	lbu	a5,0(s0)
    2282:	0047c793          	xori	a5,a5,4
    2286:	a01c                	sb	a5,0(s0)
    2288:	8526                	mv	a0,s1
    228a:	0141                	addi	sp,sp,16
    228c:	f09fd06f          	j	194 <__riscv_restore_0>

00002290 <USBFSH_SendEndpData>:
    2290:	ee1fd2ef          	jal	t0,170 <__riscv_save_0>
    2294:	84aa                	mv	s1,a0
    2296:	20002537          	lui	a0,0x20002
    229a:	1141                	addi	sp,sp,-16
    229c:	842e                	mv	s0,a1
    229e:	aec50513          	addi	a0,a0,-1300 # 20001aec <USBFS_TX_Buf>
    22a2:	85b2                	mv	a1,a2
    22a4:	8636                	mv	a2,a3
    22a6:	c636                	sw	a3,12(sp)
    22a8:	2be020ef          	jal	ra,4566 <memcpy>
    22ac:	46b2                	lw	a3,12(sp)
    22ae:	500007b7          	lui	a5,0x50000
    22b2:	4601                	li	a2,0
    22b4:	bfd6                	sh	a3,60(a5)
    22b6:	200c                	lbu	a1,0(s0)
    22b8:	0104e513          	ori	a0,s1,16
    22bc:	b6fff0ef          	jal	ra,1e2a <USBFSH_Transact>
    22c0:	e509                	bnez	a0,22ca <USBFSH_SendEndpData+0x3a>
    22c2:	201c                	lbu	a5,0(s0)
    22c4:	0047c793          	xori	a5,a5,4
    22c8:	a01c                	sb	a5,0(s0)
    22ca:	0141                	addi	sp,sp,16
    22cc:	ec9fd06f          	j	194 <__riscv_restore_0>

000022d0 <GamepadDecode>:
    22d0:	10c54603          	lbu	a2,268(a0)
    22d4:	e619                	bnez	a2,22e2 <GamepadDecode+0x12>
    22d6:	4509                	li	a0,2
    22d8:	8082                	ret
    22da:	4509                	li	a0,2
    22dc:	6161                	addi	sp,sp,80
    22de:	eadfd06f          	j	18a <__riscv_restore_4>
    22e2:	e75fd2ef          	jal	t0,156 <__riscv_save_4>
    22e6:	200029b7          	lui	s3,0x20002
    22ea:	715d                	addi	sp,sp,-80
    22ec:	84aa                	mv	s1,a0
    22ee:	b2c98593          	addi	a1,s3,-1236 # 20001b2c <gamepad_report_data>
    22f2:	08050513          	addi	a0,a0,128
    22f6:	b2c98413          	addi	s0,s3,-1236
    22fa:	103010ef          	jal	ra,3bfc <FifoRead>
    22fe:	dd71                	beqz	a0,22da <GamepadDecode+0xa>
    2300:	01010913          	addi	s2,sp,16
    2304:	03e00613          	li	a2,62
    2308:	04248593          	addi	a1,s1,66
    230c:	854a                	mv	a0,s2
    230e:	258020ef          	jal	ra,4566 <memcpy>
    2312:	0434c783          	lbu	a5,67(s1)
    2316:	0405                	addi	s0,s0,1
    2318:	e399                	bnez	a5,231e <GamepadDecode+0x4e>
    231a:	b2c98413          	addi	s0,s3,-1236
    231e:	86bc                	lhu	a5,28(sp)
    2320:	87b4                	lhu	a3,30(sp)
    2322:	01a14603          	lbu	a2,26(sp)
    2326:	84ac                	lhu	a1,24(sp)
    2328:	00f6b6b3          	sltu	a3,a3,a5
    232c:	8522                	mv	a0,s0
    232e:	181010ef          	jal	ra,3cae <collect_bits>
    2332:	02615783          	lhu	a5,38(sp)
    2336:	02415683          	lhu	a3,36(sp)
    233a:	02214603          	lbu	a2,34(sp)
    233e:	02015583          	lhu	a1,32(sp)
    2342:	8668                	sh	a0,12(sp)
    2344:	00d7b6b3          	sltu	a3,a5,a3
    2348:	8522                	mv	a0,s0
    234a:	165010ef          	jal	ra,3cae <collect_bits>
    234e:	8768                	sh	a0,14(sp)
    2350:	874a                	mv	a4,s2
    2352:	854a                	mv	a0,s2
    2354:	4781                	li	a5,0
    2356:	4581                	li	a1,0
    2358:	4805                	li	a6,1
    235a:	4611                	li	a2,4
    235c:	2f14                	lbu	a3,24(a4)
    235e:	01974883          	lbu	a7,25(a4) # 50000019 <_eusrstack+0x2fffb019>
    2362:	96a2                	add	a3,a3,s0
    2364:	2294                	lbu	a3,0(a3)
    2366:	0116f6b3          	and	a3,a3,a7
    236a:	c691                	beqz	a3,2376 <GamepadDecode+0xa6>
    236c:	00f816b3          	sll	a3,a6,a5
    2370:	8dd5                	or	a1,a1,a3
    2372:	0ff5f593          	andi	a1,a1,255
    2376:	0785                	addi	a5,a5,1
    2378:	0709                	addi	a4,a4,2
    237a:	fec791e3          	bne	a5,a2,235c <GamepadDecode+0x8c>
    237e:	874a                	mv	a4,s2
    2380:	4781                	li	a5,0
    2382:	4801                	li	a6,0
    2384:	4885                	li	a7,1
    2386:	4621                	li	a2,8
    2388:	02074683          	lbu	a3,32(a4)
    238c:	02174303          	lbu	t1,33(a4)
    2390:	96a2                	add	a3,a3,s0
    2392:	2294                	lbu	a3,0(a3)
    2394:	0066f6b3          	and	a3,a3,t1
    2398:	c699                	beqz	a3,23a6 <GamepadDecode+0xd6>
    239a:	00f896b3          	sll	a3,a7,a5
    239e:	0106e833          	or	a6,a3,a6
    23a2:	0ff87813          	andi	a6,a6,255
    23a6:	0785                	addi	a5,a5,1
    23a8:	0709                	addi	a4,a4,2
    23aa:	fcc79fe3          	bne	a5,a2,2388 <GamepadDecode+0xb8>
    23ae:	007c                	addi	a5,sp,12
    23b0:	4e09                	li	t3,2
    23b2:	07e00f13          	li	t5,126
    23b6:	07f00313          	li	t1,127
    23ba:	f8100e93          	li	t4,-127
    23be:	2576                	lhu	a3,14(a0)
    23c0:	00c55883          	lhu	a7,12(a0)
    23c4:	41168733          	sub	a4,a3,a7
    23c8:	03c74fb3          	div	t6,a4,t3
    23cc:	03e74633          	div	a2,a4,t5
    23d0:	00079703          	lh	a4,0(a5) # 50000000 <_eusrstack+0x2fffb000>
    23d4:	09175b63          	bge	a4,a7,246a <GamepadDecode+0x19a>
    23d8:	01179023          	sh	a7,0(a5)
    23dc:	96c6                	add	a3,a3,a7
    23de:	03c6c733          	div	a4,a3,t3
    23e2:	2396                	lhu	a3,0(a5)
    23e4:	8e99                	sub	a3,a3,a4
    23e6:	01069713          	slli	a4,a3,0x10
    23ea:	8341                	srli	a4,a4,0x10
    23ec:	01071893          	slli	a7,a4,0x10
    23f0:	4108d893          	srai	a7,a7,0x10
    23f4:	40cf86b3          	sub	a3,t6,a2
    23f8:	01179023          	sh	a7,0(a5)
    23fc:	40c00fb3          	neg	t6,a2
    2400:	07f8d963          	bge	a7,t6,2472 <GamepadDecode+0x1a2>
    2404:	9732                	add	a4,a4,a2
    2406:	a39a                	sh	a4,0(a5)
    2408:	00079703          	lh	a4,0(a5)
    240c:	02670733          	mul	a4,a4,t1
    2410:	02d74733          	div	a4,a4,a3
    2414:	0742                	slli	a4,a4,0x10
    2416:	8741                	srai	a4,a4,0x10
    2418:	07d75463          	bge	a4,t4,2480 <GamepadDecode+0x1b0>
    241c:	01d79023          	sh	t4,0(a5)
    2420:	239a                	lhu	a4,0(a5)
    2422:	0789                	addi	a5,a5,2
    2424:	0521                	addi	a0,a0,8
    2426:	07f70713          	addi	a4,a4,127
    242a:	fee79f23          	sh	a4,-2(a5)
    242e:	f8f918e3          	bne	s2,a5,23be <GamepadDecode+0xee>
    2432:	00c11703          	lh	a4,12(sp)
    2436:	03f00693          	li	a3,63
    243a:	4789                	li	a5,2
    243c:	00e6d663          	bge	a3,a4,2448 <GamepadDecode+0x178>
    2440:	0c172793          	slti	a5,a4,193
    2444:	0017c793          	xori	a5,a5,1
    2448:	00e11703          	lh	a4,14(sp)
    244c:	03f00693          	li	a3,63
    2450:	02e6cf63          	blt	a3,a4,248e <GamepadDecode+0x1be>
    2454:	0087e793          	ori	a5,a5,8
    2458:	0592                	slli	a1,a1,0x4
    245a:	8ddd                	or	a1,a1,a5
    245c:	88018793          	addi	a5,gp,-1920 # 200000f0 <_edata>
    2460:	a38c                	sb	a1,0(a5)
    2462:	010780a3          	sb	a6,1(a5)
    2466:	4501                	li	a0,0
    2468:	bd95                	j	22dc <GamepadDecode+0xc>
    246a:	f6e6d9e3          	bge	a3,a4,23dc <GamepadDecode+0x10c>
    246e:	a396                	sh	a3,0(a5)
    2470:	b7b5                	j	23dc <GamepadDecode+0x10c>
    2472:	01165463          	bge	a2,a7,247a <GamepadDecode+0x1aa>
    2476:	8f11                	sub	a4,a4,a2
    2478:	b779                	j	2406 <GamepadDecode+0x136>
    247a:	00079023          	sh	zero,0(a5)
    247e:	b769                	j	2408 <GamepadDecode+0x138>
    2480:	00e34463          	blt	t1,a4,2488 <GamepadDecode+0x1b8>
    2484:	a39a                	sh	a4,0(a5)
    2486:	bf69                	j	2420 <GamepadDecode+0x150>
    2488:	00679023          	sh	t1,0(a5)
    248c:	bf51                	j	2420 <GamepadDecode+0x150>
    248e:	0c000693          	li	a3,192
    2492:	fce6d3e3          	bge	a3,a4,2458 <GamepadDecode+0x188>
    2496:	0047e793          	ori	a5,a5,4
    249a:	bf7d                	j	2458 <GamepadDecode+0x188>

0000249c <GetGamepadInfo>:
    249c:	cd5fd2ef          	jal	t0,170 <__riscv_save_0>
    24a0:	3d05                	jal	22d0 <GamepadDecode>
    24a2:	c501                	beqz	a0,24aa <GetGamepadInfo+0xe>
    24a4:	4501                	li	a0,0
    24a6:	ceffd06f          	j	194 <__riscv_restore_0>
    24aa:	88018513          	addi	a0,gp,-1920 # 200000f0 <_edata>
    24ae:	bfe5                	j	24a6 <GetGamepadInfo+0xa>

000024b0 <report_is_usable>:
    24b0:	810d                	srli	a0,a0,0x3
    24b2:	a228                	sb	a0,2(a2)
    24b4:	2208                	lbu	a0,0(a2)
    24b6:	478d                	li	a5,3
    24b8:	890d                	andi	a0,a0,3
    24ba:	00f51863          	bne	a0,a5,24ca <report_is_usable+0x1a>
    24be:	0075f513          	andi	a0,a1,7
    24c2:	1565                	addi	a0,a0,-7
    24c4:	00153513          	seqz	a0,a0
    24c8:	8082                	ret
    24ca:	4785                	li	a5,1
    24cc:	00f51663          	bne	a0,a5,24d8 <report_is_usable+0x28>
    24d0:	00f5f513          	andi	a0,a1,15
    24d4:	1545                	addi	a0,a0,-15
    24d6:	b7fd                	j	24c4 <report_is_usable+0x14>
    24d8:	1579                	addi	a0,a0,-2
    24da:	b7ed                	j	24c4 <report_is_usable+0x14>

000024dc <parse_report_descriptor>:
    24dc:	c65fd2ef          	jal	t0,140 <__riscv_save_12>
    24e0:	6799                	lui	a5,0x6
    24e2:	7179                	addi	sp,sp,-48
    24e4:	c4078793          	addi	a5,a5,-960 # 5c40 <_read+0x430>
    24e8:	c63e                	sw	a5,12(sp)
    24ea:	6799                	lui	a5,0x6
    24ec:	c2c78793          	addi	a5,a5,-980 # 5c2c <_read+0x41c>
    24f0:	8aaa                	mv	s5,a0
    24f2:	89ae                	mv	s3,a1
    24f4:	8432                	mv	s0,a2
    24f6:	5cfd                	li	s9,-1
    24f8:	5dfd                	li	s11,-1
    24fa:	56fd                	li	a3,-1
    24fc:	5d7d                	li	s10,-1
    24fe:	4f01                	li	t5,0
    2500:	4581                	li	a1,0
    2502:	4e01                	li	t3,0
    2504:	4e81                	li	t4,0
    2506:	4901                	li	s2,0
    2508:	4501                	li	a0,0
    250a:	4301                	li	t1,0
    250c:	4801                	li	a6,0
    250e:	4481                	li	s1,0
    2510:	58fd                	li	a7,-1
    2512:	4c01                	li	s8,0
    2514:	4a01                	li	s4,0
    2516:	4b01                	li	s6,0
    2518:	4b85                	li	s7,1
    251a:	4f8d                	li	t6,3
    251c:	c83e                	sw	a5,16(sp)
    251e:	00099463          	bnez	s3,2526 <parse_report_descriptor+0x4a>
    2522:	4501                	li	a0,0
    2524:	aeb9                	j	2882 <parse_report_descriptor+0x3a6>
    2526:	000ac283          	lbu	t0,0(s5)
    252a:	0022d613          	srli	a2,t0,0x2
    252e:	0042d713          	srli	a4,t0,0x4
    2532:	0032f293          	andi	t0,t0,3
    2536:	8a0d                	andi	a2,a2,3
    2538:	02029563          	bnez	t0,2562 <parse_report_descriptor+0x86>
    253c:	19fd                	addi	s3,s3,-1
    253e:	09c2                	slli	s3,s3,0x10
    2540:	0a85                	addi	s5,s5,1
    2542:	0109d993          	srli	s3,s3,0x10
    2546:	4781                	li	a5,0
    2548:	060c0d63          	beqz	s8,25c2 <parse_report_descriptor+0xe6>
    254c:	fa69                	bnez	a2,251e <parse_report_descriptor+0x42>
    254e:	47a9                	li	a5,10
    2550:	04f71c63          	bne	a4,a5,25a8 <parse_report_descriptor+0xcc>
    2554:	0c05                	addi	s8,s8,1
    2556:	0485                	addi	s1,s1,1
    2558:	0ffc7c13          	andi	s8,s8,255
    255c:	0ff4f493          	andi	s1,s1,255
    2560:	bf7d                	j	251e <parse_report_descriptor+0x42>
    2562:	001ac783          	lbu	a5,1(s5)
    2566:	01729863          	bne	t0,s7,2576 <parse_report_descriptor+0x9a>
    256a:	0a89                	addi	s5,s5,2
    256c:	19f9                	addi	s3,s3,-2
    256e:	09c2                	slli	s3,s3,0x10
    2570:	0109d993          	srli	s3,s3,0x10
    2574:	bfd1                	j	2548 <parse_report_descriptor+0x6c>
    2576:	002ac383          	lbu	t2,2(s5)
    257a:	03a2                	slli	t2,t2,0x8
    257c:	979e                	add	a5,a5,t2
    257e:	01f28563          	beq	t0,t6,2588 <parse_report_descriptor+0xac>
    2582:	0a8d                	addi	s5,s5,3
    2584:	19f5                	addi	s3,s3,-3
    2586:	b7e5                	j	256e <parse_report_descriptor+0x92>
    2588:	003ac283          	lbu	t0,3(s5)
    258c:	004ac383          	lbu	t2,4(s5)
    2590:	19ed                	addi	s3,s3,-5
    2592:	02c2                	slli	t0,t0,0x10
    2594:	03e2                	slli	t2,t2,0x18
    2596:	0072e2b3          	or	t0,t0,t2
    259a:	09c2                	slli	s3,s3,0x10
    259c:	0057e7b3          	or	a5,a5,t0
    25a0:	0109d993          	srli	s3,s3,0x10
    25a4:	0a95                	addi	s5,s5,5
    25a6:	b74d                	j	2548 <parse_report_descriptor+0x6c>
    25a8:	47b1                	li	a5,12
    25aa:	f6f71ae3          	bne	a4,a5,251e <parse_report_descriptor+0x42>
    25ae:	14fd                	addi	s1,s1,-1
    25b0:	1c7d                	addi	s8,s8,-1
    25b2:	0ff4f493          	andi	s1,s1,255
    25b6:	0ffc7c13          	andi	s8,s8,255
    25ba:	f714d2e3          	bge	s1,a7,251e <parse_report_descriptor+0x42>
    25be:	58fd                	li	a7,-1
    25c0:	bfb9                	j	251e <parse_report_descriptor+0x42>
    25c2:	1b760563          	beq	a2,s7,276c <parse_report_descriptor+0x290>
    25c6:	ce01                	beqz	a2,25de <parse_report_descriptor+0x102>
    25c8:	4289                	li	t0,2
    25ca:	f4561ae3          	bne	a2,t0,251e <parse_report_descriptor+0x42>
    25ce:	2b770363          	beq	a4,s7,2874 <parse_report_descriptor+0x398>
    25d2:	20070163          	beqz	a4,27d4 <parse_report_descriptor+0x2f8>
    25d6:	f4c714e3          	bne	a4,a2,251e <parse_report_descriptor+0x42>
    25da:	97ca                	add	a5,a5,s2
    25dc:	ac79                	j	287a <parse_report_descriptor+0x39e>
    25de:	0721                	addi	a4,a4,8
    25e0:	8b3d                	andi	a4,a4,15
    25e2:	4611                	li	a2,4
    25e4:	f2e66fe3          	bltu	a2,a4,2522 <parse_report_descriptor+0x46>
    25e8:	4642                	lw	a2,16(sp)
    25ea:	070a                	slli	a4,a4,0x2
    25ec:	9732                	add	a4,a4,a2
    25ee:	4318                	lw	a4,0(a4)
    25f0:	8702                	jr	a4
    25f2:	040f0763          	beqz	t5,2640 <parse_report_descriptor+0x164>
    25f6:	201c                	lbu	a5,0(s0)
    25f8:	8b85                	andi	a5,a5,1
    25fa:	c3b9                	beqz	a5,2640 <parse_report_descriptor+0x164>
    25fc:	02680f33          	mul	t5,a6,t1
    2600:	01840613          	addi	a2,s0,24
    2604:	4701                	li	a4,0
    2606:	42b1                	li	t0,12
    2608:	0fff7f13          	andi	t5,t5,255
    260c:	0ff77793          	andi	a5,a4,255
    2610:	0067fe63          	bgeu	a5,t1,262c <parse_report_descriptor+0x150>
    2614:	00e507b3          	add	a5,a0,a4
    2618:	07c2                	slli	a5,a5,0x10
    261a:	83c1                	srli	a5,a5,0x10
    261c:	0037d393          	srli	t2,a5,0x3
    2620:	8b9d                	andi	a5,a5,7
    2622:	00fb97b3          	sll	a5,s7,a5
    2626:	00760023          	sb	t2,0(a2)
    262a:	b21c                	sb	a5,1(a2)
    262c:	0705                	addi	a4,a4,1
    262e:	0609                	addi	a2,a2,2
    2630:	fc571ee3          	bne	a4,t0,260c <parse_report_descriptor+0x130>
    2634:	03e40e23          	sb	t5,60(s0)
    2638:	066be363          	bltu	s7,t1,269e <parse_report_descriptor+0x1c2>
    263c:	0045e593          	ori	a1,a1,4
    2640:	01081793          	slli	a5,a6,0x10
    2644:	83c1                	srli	a5,a5,0x10
    2646:	040dcf63          	bltz	s11,26a4 <parse_report_descriptor+0x1c8>
    264a:	2018                	lbu	a4,0(s0)
    264c:	8b05                	andi	a4,a4,1
    264e:	c305                	beqz	a4,266e <parse_report_descriptor+0x192>
    2650:	03b78db3          	mul	s11,a5,s11
    2654:	01d41623          	sh	t4,12(s0)
    2658:	01c41723          	sh	t3,14(s0)
    265c:	01040523          	sb	a6,10(s0)
    2660:	0015e593          	ori	a1,a1,1
    2664:	9daa                	add	s11,s11,a0
    2666:	01b41423          	sh	s11,8(s0)
    266a:	040cd263          	bgez	s9,26ae <parse_report_descriptor+0x1d2>
    266e:	040d4e63          	bltz	s10,26ca <parse_report_descriptor+0x1ee>
    2672:	2018                	lbu	a4,0(s0)
    2674:	8b0d                	andi	a4,a4,3
    2676:	05f71a63          	bne	a4,t6,26ca <parse_report_descriptor+0x1ee>
    267a:	03a78d33          	mul	s10,a5,s10
    267e:	03040923          	sb	a6,50(s0)
    2682:	9d2a                	add	s10,s10,a0
    2684:	03a41823          	sh	s10,48(s0)
    2688:	026787b3          	mul	a5,a5,t1
    268c:	4f01                	li	t5,0
    268e:	5cfd                	li	s9,-1
    2690:	5dfd                	li	s11,-1
    2692:	5d7d                	li	s10,-1
    2694:	953e                	add	a0,a0,a5
    2696:	0542                	slli	a0,a0,0x10
    2698:	8141                	srli	a0,a0,0x10
    269a:	4901                	li	s2,0
    269c:	b549                	j	251e <parse_report_descriptor+0x42>
    269e:	00c5e593          	ori	a1,a1,12
    26a2:	bf79                	j	2640 <parse_report_descriptor+0x164>
    26a4:	fc0cc5e3          	bltz	s9,266e <parse_report_descriptor+0x192>
    26a8:	2018                	lbu	a4,0(s0)
    26aa:	8b05                	andi	a4,a4,1
    26ac:	d369                	beqz	a4,266e <parse_report_descriptor+0x192>
    26ae:	03978cb3          	mul	s9,a5,s9
    26b2:	01d41a23          	sh	t4,20(s0)
    26b6:	01c41b23          	sh	t3,22(s0)
    26ba:	01040923          	sb	a6,18(s0)
    26be:	0025e593          	ori	a1,a1,2
    26c2:	9caa                	add	s9,s9,a0
    26c4:	01941823          	sh	s9,16(s0)
    26c8:	b75d                	j	266e <parse_report_descriptor+0x192>
    26ca:	fa06cfe3          	bltz	a3,2688 <parse_report_descriptor+0x1ac>
    26ce:	2018                	lbu	a4,0(s0)
    26d0:	8b0d                	andi	a4,a4,3
    26d2:	fb771be3          	bne	a4,s7,2688 <parse_report_descriptor+0x1ac>
    26d6:	02d786b3          	mul	a3,a5,a3
    26da:	03d41c23          	sh	t4,56(s0)
    26de:	03c41d23          	sh	t3,58(s0)
    26e2:	03040b23          	sb	a6,54(s0)
    26e6:	96aa                	add	a3,a3,a0
    26e8:	b856                	sh	a3,52(s0)
    26ea:	56fd                	li	a3,-1
    26ec:	bf71                	j	2688 <parse_report_descriptor+0x1ac>
    26ee:	0485                	addi	s1,s1,1
    26f0:	0ff4f493          	andi	s1,s1,255
    26f4:	01779763          	bne	a5,s7,2702 <parse_report_descriptor+0x226>
    26f8:	0b05                	addi	s6,s6,1
    26fa:	0b62                	slli	s6,s6,0x18
    26fc:	418b5b13          	srai	s6,s6,0x18
    2700:	bf69                	j	269a <parse_report_descriptor+0x1be>
    2702:	e791                	bnez	a5,270e <parse_report_descriptor+0x232>
    2704:	0a05                	addi	s4,s4,1
    2706:	0a62                	slli	s4,s4,0x18
    2708:	418a5a13          	srai	s4,s4,0x18
    270c:	b779                	j	269a <parse_report_descriptor+0x1be>
    270e:	4709                	li	a4,2
    2710:	fee78ae3          	beq	a5,a4,2704 <parse_report_descriptor+0x228>
    2714:	4901                	li	s2,0
    2716:	4c05                	li	s8,1
    2718:	b519                	j	251e <parse_report_descriptor+0x42>
    271a:	14fd                	addi	s1,s1,-1
    271c:	0ff4f493          	andi	s1,s1,255
    2720:	0114d363          	bge	s1,a7,2726 <parse_report_descriptor+0x24a>
    2724:	58fd                	li	a7,-1
    2726:	000a0763          	beqz	s4,2734 <parse_report_descriptor+0x258>
    272a:	1a7d                	addi	s4,s4,-1
    272c:	0a62                	slli	s4,s4,0x18
    272e:	418a5a13          	srai	s4,s4,0x18
    2732:	b3f5                	j	251e <parse_report_descriptor+0x42>
    2734:	d636                	sw	a3,44(sp)
    2736:	d446                	sw	a7,40(sp)
    2738:	d27a                	sw	t5,36(sp)
    273a:	d076                	sw	t4,32(sp)
    273c:	ce1a                	sw	t1,28(sp)
    273e:	cc72                	sw	t3,24(sp)
    2740:	ca42                	sw	a6,20(sp)
    2742:	de0b00e3          	beqz	s6,2522 <parse_report_descriptor+0x46>
    2746:	1b7d                	addi	s6,s6,-1
    2748:	0b62                	slli	s6,s6,0x18
    274a:	8622                	mv	a2,s0
    274c:	418b5b13          	srai	s6,s6,0x18
    2750:	d61ff0ef          	jal	ra,24b0 <report_is_usable>
    2754:	12051663          	bnez	a0,2880 <parse_report_descriptor+0x3a4>
    2758:	4581                	li	a1,0
    275a:	4852                	lw	a6,20(sp)
    275c:	4e62                	lw	t3,24(sp)
    275e:	4372                	lw	t1,28(sp)
    2760:	5e82                	lw	t4,32(sp)
    2762:	5f12                	lw	t5,36(sp)
    2764:	58a2                	lw	a7,40(sp)
    2766:	56b2                	lw	a3,44(sp)
    2768:	4f8d                	li	t6,3
    276a:	bb55                	j	251e <parse_report_descriptor+0x42>
    276c:	4625                	li	a2,9
    276e:	dae66ae3          	bltu	a2,a4,2522 <parse_report_descriptor+0x46>
    2772:	4632                	lw	a2,12(sp)
    2774:	070a                	slli	a4,a4,0x2
    2776:	9732                	add	a4,a4,a2
    2778:	4318                	lw	a4,0(a4)
    277a:	8702                	jr	a4
    277c:	ffb78613          	addi	a2,a5,-5
    2780:	471d                	li	a4,7
    2782:	00c76e63          	bltu	a4,a2,279e <parse_report_descriptor+0x2c2>
    2786:	08d00713          	li	a4,141
    278a:	00c75733          	srl	a4,a4,a2
    278e:	8b05                	andi	a4,a4,1
    2790:	d80717e3          	bnez	a4,251e <parse_report_descriptor+0x42>
    2794:	4725                	li	a4,9
    2796:	d8e794e3          	bne	a5,a4,251e <parse_report_descriptor+0x42>
    279a:	4f05                	li	t5,1
    279c:	b349                	j	251e <parse_report_descriptor+0x42>
    279e:	d97790e3          	bne	a5,s7,251e <parse_report_descriptor+0x42>
    27a2:	d608dee3          	bgez	a7,251e <parse_report_descriptor+0x42>
    27a6:	01849893          	slli	a7,s1,0x18
    27aa:	4188d893          	srai	a7,a7,0x18
    27ae:	bb85                	j	251e <parse_report_descriptor+0x42>
    27b0:	01079e93          	slli	t4,a5,0x10
    27b4:	010ede93          	srli	t4,t4,0x10
    27b8:	b39d                	j	251e <parse_report_descriptor+0x42>
    27ba:	01079e13          	slli	t3,a5,0x10
    27be:	010e5e13          	srli	t3,t3,0x10
    27c2:	bbb1                	j	251e <parse_report_descriptor+0x42>
    27c4:	0ff7f813          	andi	a6,a5,255
    27c8:	bb99                	j	251e <parse_report_descriptor+0x42>
    27ca:	b01c                	sb	a5,1(s0)
    27cc:	bb89                	j	251e <parse_report_descriptor+0x42>
    27ce:	0ff7f313          	andi	t1,a5,255
    27d2:	b3b1                	j	251e <parse_report_descriptor+0x42>
    27d4:	ec8d                	bnez	s1,280e <parse_report_descriptor+0x332>
    27d6:	4719                	li	a4,6
    27d8:	00e79c63          	bne	a5,a4,27f0 <parse_report_descriptor+0x314>
    27dc:	201c                	lbu	a5,0(s0)
    27de:	9bf1                	andi	a5,a5,-4
    27e0:	0027e793          	ori	a5,a5,2
    27e4:	a01c                	sb	a5,0(s0)
    27e6:	0905                	addi	s2,s2,1
    27e8:	0942                	slli	s2,s2,0x10
    27ea:	01095913          	srli	s2,s2,0x10
    27ee:	bb05                	j	251e <parse_report_descriptor+0x42>
    27f0:	00c79763          	bne	a5,a2,27fe <parse_report_descriptor+0x322>
    27f4:	201c                	lbu	a5,0(s0)
    27f6:	9bf1                	andi	a5,a5,-4
    27f8:	0017e793          	ori	a5,a5,1
    27fc:	b7e5                	j	27e4 <parse_report_descriptor+0x308>
    27fe:	ffc78713          	addi	a4,a5,-4
    2802:	00ebe663          	bltu	s7,a4,280e <parse_report_descriptor+0x332>
    2806:	201c                	lbu	a5,0(s0)
    2808:	0037e793          	ori	a5,a5,3
    280c:	bfe1                	j	27e4 <parse_report_descriptor+0x308>
    280e:	fd778ce3          	beq	a5,s7,27e6 <parse_report_descriptor+0x30a>
    2812:	fd078713          	addi	a4,a5,-48
    2816:	02ebe263          	bltu	s7,a4,283a <parse_report_descriptor+0x35e>
    281a:	fc0b06e3          	beqz	s6,27e6 <parse_report_descriptor+0x30a>
    281e:	2018                	lbu	a4,0(s0)
    2820:	8b05                	andi	a4,a4,1
    2822:	d371                	beqz	a4,27e6 <parse_report_descriptor+0x30a>
    2824:	01891713          	slli	a4,s2,0x18
    2828:	03000613          	li	a2,48
    282c:	8761                	srai	a4,a4,0x18
    282e:	00c79463          	bne	a5,a2,2836 <parse_report_descriptor+0x35a>
    2832:	8dba                	mv	s11,a4
    2834:	bf4d                	j	27e6 <parse_report_descriptor+0x30a>
    2836:	8cba                	mv	s9,a4
    2838:	b77d                	j	27e6 <parse_report_descriptor+0x30a>
    283a:	03900713          	li	a4,57
    283e:	00e79d63          	bne	a5,a4,2858 <parse_report_descriptor+0x37c>
    2842:	fa0b02e3          	beqz	s6,27e6 <parse_report_descriptor+0x30a>
    2846:	201c                	lbu	a5,0(s0)
    2848:	8b8d                	andi	a5,a5,3
    284a:	f9f79ee3          	bne	a5,t6,27e6 <parse_report_descriptor+0x30a>
    284e:	01891d13          	slli	s10,s2,0x18
    2852:	418d5d13          	srai	s10,s10,0x18
    2856:	bf41                	j	27e6 <parse_report_descriptor+0x30a>
    2858:	03800713          	li	a4,56
    285c:	f8e795e3          	bne	a5,a4,27e6 <parse_report_descriptor+0x30a>
    2860:	f80b03e3          	beqz	s6,27e6 <parse_report_descriptor+0x30a>
    2864:	201c                	lbu	a5,0(s0)
    2866:	8b8d                	andi	a5,a5,3
    2868:	f7779fe3          	bne	a5,s7,27e6 <parse_report_descriptor+0x30a>
    286c:	01891693          	slli	a3,s2,0x18
    2870:	86e1                	srai	a3,a3,0x18
    2872:	bf95                	j	27e6 <parse_report_descriptor+0x30a>
    2874:	0905                	addi	s2,s2,1
    2876:	40f907b3          	sub	a5,s2,a5
    287a:	01079913          	slli	s2,a5,0x10
    287e:	b7b5                	j	27ea <parse_report_descriptor+0x30e>
    2880:	4505                	li	a0,1
    2882:	6145                	addi	sp,sp,48
    2884:	8f9fd06f          	j	17c <__riscv_restore_12>

00002888 <HID_GetHidDesr>:
    2888:	8e9fd2ef          	jal	t0,170 <__riscv_save_0>
    288c:	84418713          	addi	a4,gp,-1980 # 200000b4 <SetupGetHidDes>
    2890:	8832                	mv	a6,a2
    2892:	4310                	lw	a2,0(a4)
    2894:	4358                	lw	a4,4(a4)
    2896:	200027b7          	lui	a5,0x20002
    289a:	aec7a623          	sw	a2,-1300(a5) # 20001aec <USBFS_TX_Buf>
    289e:	aec78793          	addi	a5,a5,-1300
    28a2:	c3d8                	sw	a4,4(a5)
    28a4:	a3ce                	sh	a1,4(a5)
    28a6:	229a                	lhu	a4,0(a3)
    28a8:	8636                	mv	a2,a3
    28aa:	85c2                	mv	a1,a6
    28ac:	a3fa                	sh	a4,6(a5)
    28ae:	e70ff0ef          	jal	ra,1f1e <USBFSH_CtrlTransfer>
    28b2:	8e3fd06f          	j	194 <__riscv_restore_0>

000028b6 <HID_SetReport>:
    28b6:	8bbfd2ef          	jal	t0,170 <__riscv_save_0>
    28ba:	84c18713          	addi	a4,gp,-1972 # 200000bc <SetupSetReport>
    28be:	8832                	mv	a6,a2
    28c0:	4310                	lw	a2,0(a4)
    28c2:	4358                	lw	a4,4(a4)
    28c4:	200027b7          	lui	a5,0x20002
    28c8:	aec7a623          	sw	a2,-1300(a5) # 20001aec <USBFS_TX_Buf>
    28cc:	aec78793          	addi	a5,a5,-1300
    28d0:	c3d8                	sw	a4,4(a5)
    28d2:	a3ce                	sh	a1,4(a5)
    28d4:	8636                	mv	a2,a3
    28d6:	85c2                	mv	a1,a6
    28d8:	e46ff0ef          	jal	ra,1f1e <USBFSH_CtrlTransfer>
    28dc:	8b9fd06f          	j	194 <__riscv_restore_0>

000028e0 <HID_SetIdle>:
    28e0:	891fd2ef          	jal	t0,170 <__riscv_save_0>
    28e4:	85418713          	addi	a4,gp,-1964 # 200000c4 <SetupSetidle>
    28e8:	00072803          	lw	a6,0(a4)
    28ec:	4358                	lw	a4,4(a4)
    28ee:	200027b7          	lui	a5,0x20002
    28f2:	af07a623          	sw	a6,-1300(a5) # 20001aec <USBFS_TX_Buf>
    28f6:	0622                	slli	a2,a2,0x8
    28f8:	aec78793          	addi	a5,a5,-1300
    28fc:	8ed1                	or	a3,a3,a2
    28fe:	c3d8                	sw	a4,4(a5)
    2900:	a3ce                	sh	a1,4(a5)
    2902:	a3b6                	sh	a3,2(a5)
    2904:	4601                	li	a2,0
    2906:	4581                	li	a1,0
    2908:	e16ff0ef          	jal	ra,1f1e <USBFSH_CtrlTransfer>
    290c:	889fd06f          	j	194 <__riscv_restore_0>

00002910 <HUB_GetPortStatus>:
    2910:	861fd2ef          	jal	t0,170 <__riscv_save_0>
    2914:	86c18713          	addi	a4,gp,-1940 # 200000dc <GetPortStatus>
    2918:	86b2                	mv	a3,a2
    291a:	4310                	lw	a2,0(a4)
    291c:	4358                	lw	a4,4(a4)
    291e:	200027b7          	lui	a5,0x20002
    2922:	aec7a623          	sw	a2,-1300(a5) # 20001aec <USBFS_TX_Buf>
    2926:	aec78793          	addi	a5,a5,-1300
    292a:	1141                	addi	sp,sp,-16
    292c:	c3d8                	sw	a4,4(a5)
    292e:	a3ce                	sh	a1,4(a5)
    2930:	00e10613          	addi	a2,sp,14
    2934:	85b6                	mv	a1,a3
    2936:	de8ff0ef          	jal	ra,1f1e <USBFSH_CtrlTransfer>
    293a:	0141                	addi	sp,sp,16
    293c:	859fd06f          	j	194 <__riscv_restore_0>

00002940 <HUB_ClearPortFeature>:
    2940:	831fd2ef          	jal	t0,170 <__riscv_save_0>
    2944:	85c18713          	addi	a4,gp,-1956 # 200000cc <ClearPortFeature>
    2948:	4314                	lw	a3,0(a4)
    294a:	4358                	lw	a4,4(a4)
    294c:	200027b7          	lui	a5,0x20002
    2950:	aed7a623          	sw	a3,-1300(a5) # 20001aec <USBFS_TX_Buf>
    2954:	aec78793          	addi	a5,a5,-1300
    2958:	c3d8                	sw	a4,4(a5)
    295a:	a3b2                	sh	a2,2(a5)
    295c:	a3ce                	sh	a1,4(a5)
    295e:	4601                	li	a2,0
    2960:	4581                	li	a1,0
    2962:	dbcff0ef          	jal	ra,1f1e <USBFSH_CtrlTransfer>
    2966:	82ffd06f          	j	194 <__riscv_restore_0>

0000296a <HUB_SetPortFeature>:
    296a:	807fd2ef          	jal	t0,170 <__riscv_save_0>
    296e:	87418713          	addi	a4,gp,-1932 # 200000e4 <SetPortFeature>
    2972:	4314                	lw	a3,0(a4)
    2974:	4358                	lw	a4,4(a4)
    2976:	200027b7          	lui	a5,0x20002
    297a:	aed7a623          	sw	a3,-1300(a5) # 20001aec <USBFS_TX_Buf>
    297e:	aec78793          	addi	a5,a5,-1300
    2982:	c3d8                	sw	a4,4(a5)
    2984:	a3b2                	sh	a2,2(a5)
    2986:	a3ce                	sh	a1,4(a5)
    2988:	4601                	li	a2,0
    298a:	4581                	li	a1,0
    298c:	d92ff0ef          	jal	ra,1f1e <USBFSH_CtrlTransfer>
    2990:	805fd06f          	j	194 <__riscv_restore_0>

00002994 <HUB_GetClassDevDescr>:
    2994:	fc2fd2ef          	jal	t0,156 <__riscv_save_4>
    2998:	86418793          	addi	a5,gp,-1948 # 200000d4 <GetHubDescr>
    299c:	4398                	lw	a4,0(a5)
    299e:	43dc                	lw	a5,4(a5)
    29a0:	20002437          	lui	s0,0x20002
    29a4:	aee42623          	sw	a4,-1300(s0) # 20001aec <USBFS_TX_Buf>
    29a8:	aec40413          	addi	s0,s0,-1300
    29ac:	89aa                	mv	s3,a0
    29ae:	84ae                	mv	s1,a1
    29b0:	8932                	mv	s2,a2
    29b2:	c05c                	sw	a5,4(s0)
    29b4:	d6aff0ef          	jal	ra,1f1e <USBFSH_CtrlTransfer>
    29b8:	e911                	bnez	a0,29cc <HUB_GetClassDevDescr+0x38>
    29ba:	209c                	lbu	a5,0(s1)
    29bc:	864a                	mv	a2,s2
    29be:	85a6                	mv	a1,s1
    29c0:	00f91023          	sh	a5,0(s2)
    29c4:	854e                	mv	a0,s3
    29c6:	a07e                	sh	a5,6(s0)
    29c8:	d56ff0ef          	jal	ra,1f1e <USBFSH_CtrlTransfer>
    29cc:	fbefd06f          	j	18a <__riscv_restore_4>

000029d0 <HID_ReadItem>:
    29d0:	351c                	lbu	a5,9(a0)
    29d2:	872a                	mv	a4,a0
    29d4:	00052803          	lw	a6,0(a0)
    29d8:	2514                	lbu	a3,8(a0)
    29da:	cf89                	beqz	a5,29f4 <HID_ReadItem+0x24>
    29dc:	4501                	li	a0,0
    29de:	06f5f763          	bgeu	a1,a5,2a4c <HID_ReadItem+0x7c>
    29e2:	4348                	lw	a0,4(a4)
    29e4:	02a58533          	mul	a0,a1,a0
    29e8:	9536                	add	a0,a0,a3
    29ea:	00355793          	srli	a5,a0,0x3
    29ee:	983e                	add	a6,a6,a5
    29f0:	00757693          	andi	a3,a0,7
    29f4:	4350                	lw	a2,4(a4)
    29f6:	4581                	li	a1,0
    29f8:	00767793          	andi	a5,a2,7
    29fc:	00f037b3          	snez	a5,a5
    2a00:	00365513          	srli	a0,a2,0x3
    2a04:	953e                	add	a0,a0,a5
    2a06:	4781                	li	a5,0
    2a08:	04a59363          	bne	a1,a0,2a4e <HID_ReadItem+0x7e>
    2a0c:	00d7d533          	srl	a0,a5,a3
    2a10:	57fd                	li	a5,-1
    2a12:	00c797b3          	sll	a5,a5,a2
    2a16:	4754                	lw	a3,12(a4)
    2a18:	fff7c793          	not	a5,a5
    2a1c:	8fe9                	and	a5,a5,a0
    2a1e:	4501                	li	a0,0
    2a20:	02d7e663          	bltu	a5,a3,2a4c <HID_ReadItem+0x7c>
    2a24:	4b14                	lw	a3,16(a4)
    2a26:	02f6e363          	bltu	a3,a5,2a4c <HID_ReadItem+0x7c>
    2a2a:	4f48                	lw	a0,28(a4)
    2a2c:	2738                	lbu	a4,10(a4)
    2a2e:	cf09                	beqz	a4,2a48 <HID_ReadItem+0x78>
    2a30:	fff60693          	addi	a3,a2,-1
    2a34:	4705                	li	a4,1
    2a36:	00d716b3          	sll	a3,a4,a3
    2a3a:	8efd                	and	a3,a3,a5
    2a3c:	c691                	beqz	a3,2a48 <HID_ReadItem+0x78>
    2a3e:	00c71733          	sll	a4,a4,a2
    2a42:	40e00733          	neg	a4,a4
    2a46:	8fd9                	or	a5,a5,a4
    2a48:	02a78533          	mul	a0,a5,a0
    2a4c:	8082                	ret
    2a4e:	00084783          	lbu	a5,0(a6)
    2a52:	00359893          	slli	a7,a1,0x3
    2a56:	0585                	addi	a1,a1,1
    2a58:	011797b3          	sll	a5,a5,a7
    2a5c:	b775                	j	2a08 <HID_ReadItem+0x38>

00002a5e <USBH_HID_GetKeybdInfo>:
    2a5e:	10c54603          	lbu	a2,268(a0)
    2a62:	0c060263          	beqz	a2,2b26 <USBH_HID_GetKeybdInfo+0xc8>
    2a66:	ef0fd2ef          	jal	t0,156 <__riscv_save_4>
    2a6a:	88418413          	addi	s0,gp,-1916 # 200000f4 <keybd_report_data>
    2a6e:	08050513          	addi	a0,a0,128
    2a72:	88418593          	addi	a1,gp,-1916 # 200000f4 <keybd_report_data>
    2a76:	186010ef          	jal	ra,3bfc <FifoRead>
    2a7a:	c545                	beqz	a0,2b22 <USBH_HID_GetKeybdInfo+0xc4>
    2a7c:	401c                	lw	a5,0(s0)
    2a7e:	01010737          	lui	a4,0x1010
    2a82:	00e79763          	bne	a5,a4,2a90 <USBH_HID_GetKeybdInfo+0x32>
    2a86:	4058                	lw	a4,4(s0)
    2a88:	10178793          	addi	a5,a5,257
    2a8c:	08f70b63          	beq	a4,a5,2b22 <USBH_HID_GetKeybdInfo+0xc4>
    2a90:	6519                	lui	a0,0x6
    2a92:	20002437          	lui	s0,0x20002
    2a96:	4581                	li	a1,0
    2a98:	ca850513          	addi	a0,a0,-856 # 5ca8 <imp_0_lctrl>
    2a9c:	b6c40493          	addi	s1,s0,-1172 # 20001b6c <keybd_info>
    2aa0:	3f05                	jal	29d0 <HID_ReadItem>
    2aa2:	b088                	sb	a0,1(s1)
    2aa4:	6519                	lui	a0,0x6
    2aa6:	4581                	li	a1,0
    2aa8:	ce850513          	addi	a0,a0,-792 # 5ce8 <imp_0_lshift>
    2aac:	3715                	jal	29d0 <HID_ReadItem>
    2aae:	a0a8                	sb	a0,2(s1)
    2ab0:	6519                	lui	a0,0x6
    2ab2:	4581                	li	a1,0
    2ab4:	c8850513          	addi	a0,a0,-888 # 5c88 <imp_0_lalt>
    2ab8:	3f21                	jal	29d0 <HID_ReadItem>
    2aba:	b0a8                	sb	a0,3(s1)
    2abc:	6519                	lui	a0,0x6
    2abe:	4581                	li	a1,0
    2ac0:	cc850513          	addi	a0,a0,-824 # 5cc8 <imp_0_lgui>
    2ac4:	3731                	jal	29d0 <HID_ReadItem>
    2ac6:	a0c8                	sb	a0,4(s1)
    2ac8:	6519                	lui	a0,0x6
    2aca:	4581                	li	a1,0
    2acc:	d2850513          	addi	a0,a0,-728 # 5d28 <imp_0_rctrl>
    2ad0:	3701                	jal	29d0 <HID_ReadItem>
    2ad2:	b0c8                	sb	a0,5(s1)
    2ad4:	6519                	lui	a0,0x6
    2ad6:	4581                	li	a1,0
    2ad8:	d6850513          	addi	a0,a0,-664 # 5d68 <imp_0_rshift>
    2adc:	3dd5                	jal	29d0 <HID_ReadItem>
    2ade:	a0e8                	sb	a0,6(s1)
    2ae0:	6519                	lui	a0,0x6
    2ae2:	4581                	li	a1,0
    2ae4:	d0850513          	addi	a0,a0,-760 # 5d08 <imp_0_ralt>
    2ae8:	35e5                	jal	29d0 <HID_ReadItem>
    2aea:	b0e8                	sb	a0,7(s1)
    2aec:	6519                	lui	a0,0x6
    2aee:	4581                	li	a1,0
    2af0:	d4850513          	addi	a0,a0,-696 # 5d48 <imp_0_rgui>
    2af4:	3df1                	jal	29d0 <HID_ReadItem>
    2af6:	a488                	sb	a0,8(s1)
    2af8:	b6c40913          	addi	s2,s0,-1172
    2afc:	4481                	li	s1,0
    2afe:	b6c40413          	addi	s0,s0,-1172
    2b02:	6a19                	lui	s4,0x6
    2b04:	4999                	li	s3,6
    2b06:	0ff4f593          	andi	a1,s1,255
    2b0a:	c68a0513          	addi	a0,s4,-920 # 5c68 <imp_0_key_array>
    2b0e:	35c9                	jal	29d0 <HID_ReadItem>
    2b10:	00a904a3          	sb	a0,9(s2)
    2b14:	0485                	addi	s1,s1,1
    2b16:	0905                	addi	s2,s2,1
    2b18:	ff3497e3          	bne	s1,s3,2b06 <USBH_HID_GetKeybdInfo+0xa8>
    2b1c:	8522                	mv	a0,s0
    2b1e:	e6cfd06f          	j	18a <__riscv_restore_4>
    2b22:	4501                	li	a0,0
    2b24:	bfed                	j	2b1e <USBH_HID_GetKeybdInfo+0xc0>
    2b26:	4501                	li	a0,0
    2b28:	8082                	ret

00002b2a <USBH_MouseDecode>:
    2b2a:	10c54603          	lbu	a2,268(a0)
    2b2e:	e619                	bnez	a2,2b3c <USBH_MouseDecode+0x12>
    2b30:	4509                	li	a0,2
    2b32:	8082                	ret
    2b34:	4509                	li	a0,2
    2b36:	0141                	addi	sp,sp,16
    2b38:	e52fd06f          	j	18a <__riscv_restore_4>
    2b3c:	e1afd2ef          	jal	t0,156 <__riscv_save_4>
    2b40:	88c18493          	addi	s1,gp,-1908 # 200000fc <mouse_report_data>
    2b44:	1141                	addi	sp,sp,-16
    2b46:	842a                	mv	s0,a0
    2b48:	0004a023          	sw	zero,0(s1)
    2b4c:	0004a223          	sw	zero,4(s1)
    2b50:	88c18593          	addi	a1,gp,-1908 # 200000fc <mouse_report_data>
    2b54:	08050513          	addi	a0,a0,128
    2b58:	0a4010ef          	jal	ra,3bfc <FifoRead>
    2b5c:	dd61                	beqz	a0,2b34 <USBH_MouseDecode+0xa>
    2b5e:	04344783          	lbu	a5,67(s0)
    2b62:	0485                	addi	s1,s1,1
    2b64:	e399                	bnez	a5,2b6a <USBH_MouseDecode+0x40>
    2b66:	88c18493          	addi	s1,gp,-1908 # 200000fc <mouse_report_data>
    2b6a:	04e45783          	lhu	a5,78(s0)
    2b6e:	05045683          	lhu	a3,80(s0)
    2b72:	04c44603          	lbu	a2,76(s0)
    2b76:	04a45583          	lhu	a1,74(s0)
    2b7a:	00f6b6b3          	sltu	a3,a3,a5
    2b7e:	8526                	mv	a0,s1
    2b80:	12e010ef          	jal	ra,3cae <collect_bits>
    2b84:	05645683          	lhu	a3,86(s0)
    2b88:	05845783          	lhu	a5,88(s0)
    2b8c:	05245583          	lhu	a1,82(s0)
    2b90:	05444603          	lbu	a2,84(s0)
    2b94:	01051a13          	slli	s4,a0,0x10
    2b98:	00d7b6b3          	sltu	a3,a5,a3
    2b9c:	410a5a13          	srai	s4,s4,0x10
    2ba0:	8526                	mv	a0,s1
    2ba2:	01411623          	sh	s4,12(sp)
    2ba6:	108010ef          	jal	ra,3cae <collect_bits>
    2baa:	01051993          	slli	s3,a0,0x10
    2bae:	4109d993          	srai	s3,s3,0x10
    2bb2:	01311723          	sh	s3,14(sp)
    2bb6:	05a40693          	addi	a3,s0,90
    2bba:	4701                	li	a4,0
    2bbc:	4901                	li	s2,0
    2bbe:	4505                	li	a0,1
    2bc0:	4591                	li	a1,4
    2bc2:	2290                	lbu	a2,0(a3)
    2bc4:	329c                	lbu	a5,1(a3)
    2bc6:	9626                	add	a2,a2,s1
    2bc8:	2210                	lbu	a2,0(a2)
    2bca:	8e7d                	and	a2,a2,a5
    2bcc:	c619                	beqz	a2,2bda <USBH_MouseDecode+0xb0>
    2bce:	00e51633          	sll	a2,a0,a4
    2bd2:	012667b3          	or	a5,a2,s2
    2bd6:	0ff7f913          	andi	s2,a5,255
    2bda:	0705                	addi	a4,a4,1
    2bdc:	0689                	addi	a3,a3,2
    2bde:	feb712e3          	bne	a4,a1,2bc2 <USBH_MouseDecode+0x98>
    2be2:	07c45783          	lhu	a5,124(s0)
    2be6:	07a45683          	lhu	a3,122(s0)
    2bea:	07844603          	lbu	a2,120(s0)
    2bee:	07645583          	lhu	a1,118(s0)
    2bf2:	00d7b6b3          	sltu	a3,a5,a3
    2bf6:	8526                	mv	a0,s1
    2bf8:	0b6010ef          	jal	ra,3cae <collect_bits>
    2bfc:	04244703          	lbu	a4,66(s0)
    2c00:	4785                	li	a5,1
    2c02:	8b0d                	andi	a4,a4,3
    2c04:	06f71d63          	bne	a4,a5,2c7e <USBH_MouseDecode+0x154>
    2c08:	07f00713          	li	a4,127
    2c0c:	01475463          	bge	a4,s4,2c14 <USBH_MouseDecode+0xea>
    2c10:	8678                	sh	a4,12(sp)
    2c12:	a029                	j	2c1c <USBH_MouseDecode+0xf2>
    2c14:	f8000713          	li	a4,-128
    2c18:	feea4ce3          	blt	s4,a4,2c10 <USBH_MouseDecode+0xe6>
    2c1c:	07f00713          	li	a4,127
    2c20:	01375463          	bge	a4,s3,2c28 <USBH_MouseDecode+0xfe>
    2c24:	8778                	sh	a4,14(sp)
    2c26:	a029                	j	2c30 <USBH_MouseDecode+0x106>
    2c28:	f8000713          	li	a4,-128
    2c2c:	fee9cce3          	blt	s3,a4,2c24 <USBH_MouseDecode+0xfa>
    2c30:	872a                	mv	a4,a0
    2c32:	0542                	slli	a0,a0,0x10
    2c34:	8541                	srai	a0,a0,0x10
    2c36:	f8000793          	li	a5,-128
    2c3a:	00f55463          	bge	a0,a5,2c42 <USBH_MouseDecode+0x118>
    2c3e:	f8000713          	li	a4,-128
    2c42:	47b2                	lw	a5,12(sp)
    2c44:	200026b7          	lui	a3,0x20002
    2c48:	b7c68613          	addi	a2,a3,-1156 # 20001b7c <mouse_info>
    2c4c:	c21c                	sw	a5,0(a2)
    2c4e:	00197793          	andi	a5,s2,1
    2c52:	a25c                	sb	a5,4(a2)
    2c54:	00295793          	srli	a5,s2,0x2
    2c58:	8b85                	andi	a5,a5,1
    2c5a:	00195593          	srli	a1,s2,0x1
    2c5e:	a27c                	sb	a5,6(a2)
    2c60:	8985                	andi	a1,a1,1
    2c62:	87ba                	mv	a5,a4
    2c64:	b24c                	sb	a1,5(a2)
    2c66:	01079613          	slli	a2,a5,0x10
    2c6a:	8641                	srai	a2,a2,0x10
    2c6c:	07f00713          	li	a4,127
    2c70:	b7c68693          	addi	a3,a3,-1156
    2c74:	00c75463          	bge	a4,a2,2c7c <USBH_MouseDecode+0x152>
    2c78:	07f00793          	li	a5,127
    2c7c:	a69e                	sh	a5,8(a3)
    2c7e:	4501                	li	a0,0
    2c80:	bd5d                	j	2b36 <USBH_MouseDecode+0xc>

00002c82 <USBH_GetMouseInfo>:
    2c82:	ceefd2ef          	jal	t0,170 <__riscv_save_0>
    2c86:	3555                	jal	2b2a <USBH_MouseDecode>
    2c88:	c501                	beqz	a0,2c90 <USBH_GetMouseInfo+0xe>
    2c8a:	4501                	li	a0,0
    2c8c:	d08fd06f          	j	194 <__riscv_restore_0>
    2c90:	20002537          	lui	a0,0x20002
    2c94:	b7c50513          	addi	a0,a0,-1156 # 20001b7c <mouse_info>
    2c98:	bfd5                	j	2c8c <USBH_GetMouseInfo+0xa>

00002c9a <NMI_Handler>:
    2c9a:	30200073          	mret

00002c9e <HardFault_Handler>:
    2c9e:	a001                	j	2c9e <HardFault_Handler>

00002ca0 <EXTI3_IRQHandler>:
    2ca0:	4521                	li	a0,8
    2ca2:	236010ef          	jal	ra,3ed8 <EXTI_GetITStatus>
    2ca6:	c511                	beqz	a0,2cb2 <EXTI3_IRQHandler+0x12>
    2ca8:	413000ef          	jal	ra,38ba <ProcessScrollIRQ>
    2cac:	4521                	li	a0,8
    2cae:	248010ef          	jal	ra,3ef6 <EXTI_ClearITPendingBit>
    2cb2:	30200073          	mret

00002cb6 <ProcessGamepad>:
    2cb6:	c551                	beqz	a0,2d42 <ProcessGamepad+0x8c>
    2cb8:	cb8fd2ef          	jal	t0,170 <__riscv_save_0>
    2cbc:	2110                	lbu	a2,0(a0)
    2cbe:	400114b7          	lui	s1,0x40011
    2cc2:	842a                	mv	s0,a0
    2cc4:	fff64613          	not	a2,a2
    2cc8:	c0048513          	addi	a0,s1,-1024 # 40010c00 <_eusrstack+0x2000bc00>
    2ccc:	8a05                	andi	a2,a2,1
    2cce:	45c1                	li	a1,16
    2cd0:	358010ef          	jal	ra,4028 <GPIO_WriteBit>
    2cd4:	2010                	lbu	a2,0(s0)
    2cd6:	c0048513          	addi	a0,s1,-1024
    2cda:	02000593          	li	a1,32
    2cde:	8205                	srli	a2,a2,0x1
    2ce0:	fff64613          	not	a2,a2
    2ce4:	8a05                	andi	a2,a2,1
    2ce6:	342010ef          	jal	ra,4028 <GPIO_WriteBit>
    2cea:	2010                	lbu	a2,0(s0)
    2cec:	c0048513          	addi	a0,s1,-1024
    2cf0:	10000593          	li	a1,256
    2cf4:	8209                	srli	a2,a2,0x2
    2cf6:	fff64613          	not	a2,a2
    2cfa:	8a05                	andi	a2,a2,1
    2cfc:	32c010ef          	jal	ra,4028 <GPIO_WriteBit>
    2d00:	2010                	lbu	a2,0(s0)
    2d02:	c0048513          	addi	a0,s1,-1024
    2d06:	20000593          	li	a1,512
    2d0a:	820d                	srli	a2,a2,0x3
    2d0c:	fff64613          	not	a2,a2
    2d10:	8a05                	andi	a2,a2,1
    2d12:	316010ef          	jal	ra,4028 <GPIO_WriteBit>
    2d16:	2010                	lbu	a2,0(s0)
    2d18:	c0048513          	addi	a0,s1,-1024
    2d1c:	65a1                	lui	a1,0x8
    2d1e:	8211                	srli	a2,a2,0x4
    2d20:	fff64613          	not	a2,a2
    2d24:	8a05                	andi	a2,a2,1
    2d26:	302010ef          	jal	ra,4028 <GPIO_WriteBit>
    2d2a:	2010                	lbu	a2,0(s0)
    2d2c:	6591                	lui	a1,0x4
    2d2e:	c0048513          	addi	a0,s1,-1024
    2d32:	8219                	srli	a2,a2,0x6
    2d34:	fff64613          	not	a2,a2
    2d38:	8a05                	andi	a2,a2,1
    2d3a:	2ee010ef          	jal	ra,4028 <GPIO_WriteBit>
    2d3e:	c56fd06f          	j	194 <__riscv_restore_0>
    2d42:	8082                	ret

00002d44 <GPIO_Config>:
    2d44:	c12fd2ef          	jal	t0,156 <__riscv_save_4>
    2d48:	7179                	addi	sp,sp,-48
    2d4a:	4585                	li	a1,1
    2d4c:	4511                	li	a0,4
    2d4e:	4d0010ef          	jal	ra,421e <RCC_APB2PeriphClockCmd>
    2d52:	4585                	li	a1,1
    2d54:	4521                	li	a0,8
    2d56:	4c8010ef          	jal	ra,421e <RCC_APB2PeriphClockCmd>
    2d5a:	4585                	li	a1,1
    2d5c:	4541                	li	a0,16
    2d5e:	4c0010ef          	jal	ra,421e <RCC_APB2PeriphClockCmd>
    2d62:	4585                	li	a1,1
    2d64:	4505                	li	a0,1
    2d66:	4b8010ef          	jal	ra,421e <RCC_APB2PeriphClockCmd>
    2d6a:	40011437          	lui	s0,0x40011
    2d6e:	80040513          	addi	a0,s0,-2048 # 40010800 <_eusrstack+0x2000b800>
    2d72:	4605                	li	a2,1
    2d74:	45a1                	li	a1,8
    2d76:	ca02                	sw	zero,20(sp)
    2d78:	cc02                	sw	zero,24(sp)
    2d7a:	ce02                	sw	zero,28(sp)
    2d7c:	2ac010ef          	jal	ra,4028 <GPIO_WriteBit>
    2d80:	c0040513          	addi	a0,s0,-1024
    2d84:	4601                	li	a2,0
    2d86:	33000593          	li	a1,816
    2d8a:	29e010ef          	jal	ra,4028 <GPIO_WriteBit>
    2d8e:	c0040513          	addi	a0,s0,-1024
    2d92:	4605                	li	a2,1
    2d94:	65b1                	lui	a1,0xc
    2d96:	292010ef          	jal	ra,4028 <GPIO_WriteBit>
    2d9a:	6585                	lui	a1,0x1
    2d9c:	4605                	li	a2,1
    2d9e:	80040513          	addi	a0,s0,-2048
    2da2:	0c058593          	addi	a1,a1,192 # 10c0 <USBH_EnumHubPortDevice+0x100>
    2da6:	282010ef          	jal	ra,4028 <GPIO_WriteBit>
    2daa:	448d                	li	s1,3
    2dac:	4941                	li	s2,16
    2dae:	4985                	li	s3,1
    2db0:	084c                	addi	a1,sp,20
    2db2:	80040513          	addi	a0,s0,-2048
    2db6:	01311a23          	sh	s3,20(sp)
    2dba:	ce4a                	sw	s2,28(sp)
    2dbc:	cc26                	sw	s1,24(sp)
    2dbe:	142010ef          	jal	ra,3f00 <GPIO_Init>
    2dc2:	4a21                	li	s4,8
    2dc4:	084c                	addi	a1,sp,20
    2dc6:	80040513          	addi	a0,s0,-2048
    2dca:	01411a23          	sh	s4,20(sp)
    2dce:	ce4a                	sw	s2,28(sp)
    2dd0:	cc26                	sw	s1,24(sp)
    2dd2:	12e010ef          	jal	ra,3f00 <GPIO_Init>
    2dd6:	77f1                	lui	a5,0xffffc
    2dd8:	33078793          	addi	a5,a5,816 # ffffc330 <_eusrstack+0xdfff7330>
    2ddc:	084c                	addi	a1,sp,20
    2dde:	c0040513          	addi	a0,s0,-1024
    2de2:	82fc                	sh	a5,20(sp)
    2de4:	ce4a                	sw	s2,28(sp)
    2de6:	cc26                	sw	s1,24(sp)
    2de8:	118010ef          	jal	ra,3f00 <GPIO_Init>
    2dec:	6785                	lui	a5,0x1
    2dee:	0c078793          	addi	a5,a5,192 # 10c0 <USBH_EnumHubPortDevice+0x100>
    2df2:	82fc                	sh	a5,20(sp)
    2df4:	084c                	addi	a1,sp,20
    2df6:	47d1                	li	a5,20
    2df8:	80040513          	addi	a0,s0,-2048
    2dfc:	ce3e                	sw	a5,28(sp)
    2dfe:	cc26                	sw	s1,24(sp)
    2e00:	100010ef          	jal	ra,3f00 <GPIO_Init>
    2e04:	4585                	li	a1,1
    2e06:	4505                	li	a0,1
    2e08:	d002                	sw	zero,32(sp)
    2e0a:	d202                	sw	zero,36(sp)
    2e0c:	d402                	sw	zero,40(sp)
    2e0e:	d602                	sw	zero,44(sp)
    2e10:	c602                	sw	zero,12(sp)
    2e12:	c802                	sw	zero,16(sp)
    2e14:	40a010ef          	jal	ra,421e <RCC_APB2PeriphClockCmd>
    2e18:	4585                	li	a1,1
    2e1a:	4521                	li	a0,8
    2e1c:	402010ef          	jal	ra,421e <RCC_APB2PeriphClockCmd>
    2e20:	04800793          	li	a5,72
    2e24:	084c                	addi	a1,sp,20
    2e26:	c0040513          	addi	a0,s0,-1024
    2e2a:	ce3e                	sw	a5,28(sp)
    2e2c:	01411a23          	sh	s4,20(sp)
    2e30:	0d0010ef          	jal	ra,3f00 <GPIO_Init>
    2e34:	458d                	li	a1,3
    2e36:	4505                	li	a0,1
    2e38:	21e010ef          	jal	ra,4056 <GPIO_EXTILineConfig>
    2e3c:	47a1                	li	a5,8
    2e3e:	4405                	li	s0,1
    2e40:	d03e                	sw	a5,32(sp)
    2e42:	1008                	addi	a0,sp,32
    2e44:	47b1                	li	a5,12
    2e46:	d43e                	sw	a5,40(sp)
    2e48:	d622                	sw	s0,44(sp)
    2e4a:	d202                	sw	zero,36(sp)
    2e4c:	022010ef          	jal	ra,3e6e <EXTI_Init>
    2e50:	11900793          	li	a5,281
    2e54:	0068                	addi	a0,sp,12
    2e56:	867c                	sh	a5,12(sp)
    2e58:	01310723          	sb	s3,14(sp)
    2e5c:	c822                	sw	s0,16(sp)
    2e5e:	224010ef          	jal	ra,4082 <NVIC_Init>
    2e62:	6145                	addi	sp,sp,48
    2e64:	b26fd06f          	j	18a <__riscv_restore_4>

00002e68 <scancode_to_amiga>:
    2e68:	6719                	lui	a4,0x6
    2e6a:	d8870693          	addi	a3,a4,-632 # 5d88 <scancodeamiga>
    2e6e:	4781                	li	a5,0
    2e70:	d8870713          	addi	a4,a4,-632
    2e74:	07000613          	li	a2,112
    2e78:	228c                	lbu	a1,0(a3)
    2e7a:	00a59663          	bne	a1,a0,2e86 <scancode_to_amiga+0x1e>
    2e7e:	0786                	slli	a5,a5,0x1
    2e80:	97ba                	add	a5,a5,a4
    2e82:	3388                	lbu	a0,1(a5)
    2e84:	8082                	ret
    2e86:	0785                	addi	a5,a5,1
    2e88:	0689                	addi	a3,a3,2
    2e8a:	fec797e3          	bne	a5,a2,2e78 <scancode_to_amiga+0x10>
    2e8e:	8082                	ret

00002e90 <amikb_send>:
    2e90:	ac6fd2ef          	jal	t0,156 <__riscv_save_4>
    2e94:	200007b7          	lui	a5,0x20000
    2e98:	06200713          	li	a4,98
    2e9c:	07078793          	addi	a5,a5,112 # 20000070 <prev_keycode>
    2ea0:	02e50563          	beq	a0,a4,2eca <amikb_send+0x3a>
    2ea4:	06800713          	li	a4,104
    2ea8:	12e50963          	beq	a0,a4,2fda <amikb_send+0x14a>
    2eac:	4771                	li	a4,28
    2eae:	4481                	li	s1,0
    2eb0:	02e51763          	bne	a0,a4,2ede <amikb_send+0x4e>
    2eb4:	89718713          	addi	a4,gp,-1897 # 20000107 <scrolllk>
    2eb8:	2314                	lbu	a3,0(a4)
    2eba:	14069363          	bnez	a3,3000 <amikb_send+0x170>
    2ebe:	12058e63          	beqz	a1,2ffa <amikb_send+0x16a>
    2ec2:	00078023          	sb	zero,0(a5)
    2ec6:	448d                	li	s1,3
    2ec8:	a819                	j	2ede <amikb_send+0x4e>
    2eca:	89418713          	addi	a4,gp,-1900 # 20000104 <capslk>
    2ece:	2314                	lbu	a3,0(a4)
    2ed0:	0e069a63          	bnez	a3,2fc4 <amikb_send+0x134>
    2ed4:	12058363          	beqz	a1,2ffa <amikb_send+0x16a>
    2ed8:	00078023          	sb	zero,0(a5)
    2edc:	4485                	li	s1,1
    2ede:	fff5c593          	not	a1,a1
    2ee2:	00151413          	slli	s0,a0,0x1
    2ee6:	8985                	andi	a1,a1,1
    2ee8:	2398                	lbu	a4,0(a5)
    2eea:	8dc1                	or	a1,a1,s0
    2eec:	0ff5f413          	andi	s0,a1,255
    2ef0:	0c870d63          	beq	a4,s0,2fca <amikb_send+0x13a>
    2ef4:	40011937          	lui	s2,0x40011
    2ef8:	80090513          	addi	a0,s2,-2048 # 40010800 <_eusrstack+0x2000b800>
    2efc:	4605                	li	a2,1
    2efe:	08000593          	li	a1,128
    2f02:	a380                	sb	s0,0(a5)
    2f04:	124010ef          	jal	ra,4028 <GPIO_WriteBit>
    2f08:	4601                	li	a2,0
    2f0a:	08000593          	li	a1,128
    2f0e:	80090513          	addi	a0,s2,-2048
    2f12:	116010ef          	jal	ra,4028 <GPIO_WriteBit>
    2f16:	06400513          	li	a0,100
    2f1a:	506010ef          	jal	ra,4420 <Delay_Us>
    2f1e:	80090513          	addi	a0,s2,-2048
    2f22:	4605                	li	a2,1
    2f24:	08000593          	li	a1,128
    2f28:	100010ef          	jal	ra,4028 <GPIO_WriteBit>
    2f2c:	06400513          	li	a0,100
    2f30:	40011a37          	lui	s4,0x40011
    2f34:	4ec010ef          	jal	ra,4420 <Delay_Us>
    2f38:	800a0993          	addi	s3,s4,-2048 # 40010800 <_eusrstack+0x2000b800>
    2f3c:	88018aa3          	sb	zero,-1899(gp) # 20000105 <i>
    2f40:	4a9d                	li	s5,7
    2f42:	89518913          	addi	s2,gp,-1899 # 20000105 <i>
    2f46:	01841793          	slli	a5,s0,0x18
    2f4a:	87e1                	srai	a5,a5,0x18
    2f4c:	4601                	li	a2,0
    2f4e:	0007c363          	bltz	a5,2f54 <amikb_send+0xc4>
    2f52:	4605                	li	a2,1
    2f54:	08000593          	li	a1,128
    2f58:	854e                	mv	a0,s3
    2f5a:	0ce010ef          	jal	ra,4028 <GPIO_WriteBit>
    2f5e:	4529                	li	a0,10
    2f60:	4c0010ef          	jal	ra,4420 <Delay_Us>
    2f64:	4601                	li	a2,0
    2f66:	04000593          	li	a1,64
    2f6a:	854e                	mv	a0,s3
    2f6c:	0bc010ef          	jal	ra,4028 <GPIO_WriteBit>
    2f70:	4529                	li	a0,10
    2f72:	4ae010ef          	jal	ra,4420 <Delay_Us>
    2f76:	4605                	li	a2,1
    2f78:	04000593          	li	a1,64
    2f7c:	854e                	mv	a0,s3
    2f7e:	0aa010ef          	jal	ra,4028 <GPIO_WriteBit>
    2f82:	4529                	li	a0,10
    2f84:	49c010ef          	jal	ra,4420 <Delay_Us>
    2f88:	00094783          	lbu	a5,0(s2)
    2f8c:	0406                	slli	s0,s0,0x1
    2f8e:	0ff47413          	andi	s0,s0,255
    2f92:	0785                	addi	a5,a5,1
    2f94:	0ff7f793          	andi	a5,a5,255
    2f98:	00f90023          	sb	a5,0(s2)
    2f9c:	fafaf5e3          	bgeu	s5,a5,2f46 <amikb_send+0xb6>
    2fa0:	06400513          	li	a0,100
    2fa4:	47c010ef          	jal	ra,4420 <Delay_Us>
    2fa8:	800a0513          	addi	a0,s4,-2048
    2fac:	4605                	li	a2,1
    2fae:	08000593          	li	a1,128
    2fb2:	076010ef          	jal	ra,4028 <GPIO_WriteBit>
    2fb6:	06400513          	li	a0,100
    2fba:	466010ef          	jal	ra,4420 <Delay_Us>
    2fbe:	8526                	mv	a0,s1
    2fc0:	9cafd06f          	j	18a <__riscv_restore_4>
    2fc4:	c589                	beqz	a1,2fce <amikb_send+0x13e>
    2fc6:	00078023          	sb	zero,0(a5)
    2fca:	4481                	li	s1,0
    2fcc:	bfcd                	j	2fbe <amikb_send+0x12e>
    2fce:	00070023          	sb	zero,0(a4)
    2fd2:	00078023          	sb	zero,0(a5)
    2fd6:	4491                	li	s1,4
    2fd8:	b719                	j	2ede <amikb_send+0x4e>
    2fda:	89618713          	addi	a4,gp,-1898 # 20000106 <numlk>
    2fde:	2314                	lbu	a3,0(a4)
    2fe0:	e691                	bnez	a3,2fec <amikb_send+0x15c>
    2fe2:	cd81                	beqz	a1,2ffa <amikb_send+0x16a>
    2fe4:	00078023          	sb	zero,0(a5)
    2fe8:	4489                	li	s1,2
    2fea:	bdd5                	j	2ede <amikb_send+0x4e>
    2fec:	fde9                	bnez	a1,2fc6 <amikb_send+0x136>
    2fee:	00070023          	sb	zero,0(a4)
    2ff2:	00078023          	sb	zero,0(a5)
    2ff6:	4495                	li	s1,5
    2ff8:	b5dd                	j	2ede <amikb_send+0x4e>
    2ffa:	4685                	li	a3,1
    2ffc:	a314                	sb	a3,0(a4)
    2ffe:	b7e1                	j	2fc6 <amikb_send+0x136>
    3000:	f1f9                	bnez	a1,2fc6 <amikb_send+0x136>
    3002:	00070023          	sb	zero,0(a4)
    3006:	00078023          	sb	zero,0(a5)
    300a:	4499                	li	s1,6
    300c:	bdc9                	j	2ede <amikb_send+0x4e>

0000300e <amikb_reset>:
    300e:	962fd2ef          	jal	t0,170 <__riscv_save_0>
    3012:	400114b7          	lui	s1,0x40011
    3016:	4429                	li	s0,10
    3018:	80048913          	addi	s2,s1,-2048 # 40010800 <_eusrstack+0x2000b800>
    301c:	147d                	addi	s0,s0,-1
    301e:	4601                	li	a2,0
    3020:	6585                	lui	a1,0x1
    3022:	854a                	mv	a0,s2
    3024:	0ff47413          	andi	s0,s0,255
    3028:	000010ef          	jal	ra,4028 <GPIO_WriteBit>
    302c:	f865                	bnez	s0,301c <amikb_reset+0xe>
    302e:	4605                	li	a2,1
    3030:	6585                	lui	a1,0x1
    3032:	80048513          	addi	a0,s1,-2048
    3036:	7f3000ef          	jal	ra,4028 <GPIO_WriteBit>
    303a:	200007b7          	lui	a5,0x20000
    303e:	577d                	li	a4,-1
    3040:	06e78823          	sb	a4,112(a5) # 20000070 <prev_keycode>
    3044:	88018a23          	sb	zero,-1900(gp) # 20000104 <capslk>
    3048:	88018b23          	sb	zero,-1898(gp) # 20000106 <numlk>
    304c:	88018ba3          	sb	zero,-1897(gp) # 20000107 <scrolllk>
    3050:	944fd06f          	j	194 <__riscv_restore_0>

00003054 <amikb_process>:
    3054:	1c050563          	beqz	a0,321e <amikb_process+0x1ca>
    3058:	8fefd2ef          	jal	t0,156 <__riscv_save_4>
    305c:	311c                	lbu	a5,1(a0)
    305e:	4705                	li	a4,1
    3060:	1101                	addi	sp,sp,-32
    3062:	84aa                	mv	s1,a0
    3064:	00e79b63          	bne	a5,a4,307a <amikb_process+0x26>
    3068:	3138                	lbu	a4,3(a0)
    306a:	00f71863          	bne	a4,a5,307a <amikb_process+0x26>
    306e:	3518                	lbu	a4,9(a0)
    3070:	04c00793          	li	a5,76
    3074:	00f71363          	bne	a4,a5,307a <amikb_process+0x26>
    3078:	3f59                	jal	300e <amikb_reset>
    307a:	200027b7          	lui	a5,0x20002
    307e:	b8878713          	addi	a4,a5,-1144 # 20001b88 <prevkeycode>
    3082:	20ac                	lbu	a1,2(s1)
    3084:	2338                	lbu	a4,2(a4)
    3086:	893e                	mv	s2,a5
    3088:	b8878413          	addi	s0,a5,-1144
    308c:	00b70b63          	beq	a4,a1,30a2 <amikb_process+0x4e>
    3090:	0e100513          	li	a0,225
    3094:	a02c                	sb	a1,2(s0)
    3096:	c62e                	sw	a1,12(sp)
    3098:	dd1ff0ef          	jal	ra,2e68 <scancode_to_amiga>
    309c:	45b2                	lw	a1,12(sp)
    309e:	df3ff0ef          	jal	ra,2e90 <amikb_send>
    30a2:	30ac                	lbu	a1,3(s1)
    30a4:	303c                	lbu	a5,3(s0)
    30a6:	00b78b63          	beq	a5,a1,30bc <amikb_process+0x68>
    30aa:	0e200513          	li	a0,226
    30ae:	b02c                	sb	a1,3(s0)
    30b0:	c62e                	sw	a1,12(sp)
    30b2:	db7ff0ef          	jal	ra,2e68 <scancode_to_amiga>
    30b6:	45b2                	lw	a1,12(sp)
    30b8:	dd9ff0ef          	jal	ra,2e90 <amikb_send>
    30bc:	308c                	lbu	a1,1(s1)
    30be:	301c                	lbu	a5,1(s0)
    30c0:	00b78b63          	beq	a5,a1,30d6 <amikb_process+0x82>
    30c4:	0e000513          	li	a0,224
    30c8:	b00c                	sb	a1,1(s0)
    30ca:	c62e                	sw	a1,12(sp)
    30cc:	d9dff0ef          	jal	ra,2e68 <scancode_to_amiga>
    30d0:	45b2                	lw	a1,12(sp)
    30d2:	dbfff0ef          	jal	ra,2e90 <amikb_send>
    30d6:	20cc                	lbu	a1,4(s1)
    30d8:	205c                	lbu	a5,4(s0)
    30da:	00b78b63          	beq	a5,a1,30f0 <amikb_process+0x9c>
    30de:	0e300513          	li	a0,227
    30e2:	a04c                	sb	a1,4(s0)
    30e4:	c62e                	sw	a1,12(sp)
    30e6:	d83ff0ef          	jal	ra,2e68 <scancode_to_amiga>
    30ea:	45b2                	lw	a1,12(sp)
    30ec:	da5ff0ef          	jal	ra,2e90 <amikb_send>
    30f0:	20ec                	lbu	a1,6(s1)
    30f2:	207c                	lbu	a5,6(s0)
    30f4:	00b78b63          	beq	a5,a1,310a <amikb_process+0xb6>
    30f8:	0e500513          	li	a0,229
    30fc:	a06c                	sb	a1,6(s0)
    30fe:	c62e                	sw	a1,12(sp)
    3100:	d69ff0ef          	jal	ra,2e68 <scancode_to_amiga>
    3104:	45b2                	lw	a1,12(sp)
    3106:	d8bff0ef          	jal	ra,2e90 <amikb_send>
    310a:	30ec                	lbu	a1,7(s1)
    310c:	307c                	lbu	a5,7(s0)
    310e:	00b78b63          	beq	a5,a1,3124 <amikb_process+0xd0>
    3112:	0e600513          	li	a0,230
    3116:	b06c                	sb	a1,7(s0)
    3118:	c62e                	sw	a1,12(sp)
    311a:	d4fff0ef          	jal	ra,2e68 <scancode_to_amiga>
    311e:	45b2                	lw	a1,12(sp)
    3120:	d71ff0ef          	jal	ra,2e90 <amikb_send>
    3124:	30cc                	lbu	a1,5(s1)
    3126:	305c                	lbu	a5,5(s0)
    3128:	00b78b63          	beq	a5,a1,313e <amikb_process+0xea>
    312c:	0e400513          	li	a0,228
    3130:	b04c                	sb	a1,5(s0)
    3132:	c62e                	sw	a1,12(sp)
    3134:	d35ff0ef          	jal	ra,2e68 <scancode_to_amiga>
    3138:	45b2                	lw	a1,12(sp)
    313a:	d57ff0ef          	jal	ra,2e90 <amikb_send>
    313e:	248c                	lbu	a1,8(s1)
    3140:	241c                	lbu	a5,8(s0)
    3142:	00b78b63          	beq	a5,a1,3158 <amikb_process+0x104>
    3146:	0e700513          	li	a0,231
    314a:	a40c                	sb	a1,8(s0)
    314c:	c62e                	sw	a1,12(sp)
    314e:	d1bff0ef          	jal	ra,2e68 <scancode_to_amiga>
    3152:	45b2                	lw	a1,12(sp)
    3154:	d3dff0ef          	jal	ra,2e90 <amikb_send>
    3158:	c802                	sw	zero,16(sp)
    315a:	00011a23          	sh	zero,20(sp)
    315e:	cc02                	sw	zero,24(sp)
    3160:	00011e23          	sh	zero,28(sp)
    3164:	00640513          	addi	a0,s0,6
    3168:	b8890793          	addi	a5,s2,-1144
    316c:	4601                	li	a2,0
    316e:	00f48813          	addi	a6,s1,15
    3172:	0097c883          	lbu	a7,9(a5)
    3176:	00948713          	addi	a4,s1,9
    317a:	86ba                	mv	a3,a4
    317c:	4581                	li	a1,0
    317e:	0006c303          	lbu	t1,0(a3)
    3182:	01131363          	bne	t1,a7,3188 <amikb_process+0x134>
    3186:	4585                	li	a1,1
    3188:	0685                	addi	a3,a3,1
    318a:	fed81ae3          	bne	a6,a3,317e <amikb_process+0x12a>
    318e:	e591                	bnez	a1,319a <amikb_process+0x146>
    3190:	1014                	addi	a3,sp,32
    3192:	96b2                	add	a3,a3,a2
    3194:	ff168c23          	sb	a7,-8(a3)
    3198:	0605                	addi	a2,a2,1
    319a:	0785                	addi	a5,a5,1
    319c:	fcf51be3          	bne	a0,a5,3172 <amikb_process+0x11e>
    31a0:	4681                	li	a3,0
    31a2:	230c                	lbu	a1,0(a4)
    31a4:	87a2                	mv	a5,s0
    31a6:	4601                	li	a2,0
    31a8:	0097c883          	lbu	a7,9(a5)
    31ac:	00b89363          	bne	a7,a1,31b2 <amikb_process+0x15e>
    31b0:	4605                	li	a2,1
    31b2:	0785                	addi	a5,a5,1
    31b4:	fef51ae3          	bne	a0,a5,31a8 <amikb_process+0x154>
    31b8:	e611                	bnez	a2,31c4 <amikb_process+0x170>
    31ba:	101c                	addi	a5,sp,32
    31bc:	97b6                	add	a5,a5,a3
    31be:	feb78823          	sb	a1,-16(a5)
    31c2:	0685                	addi	a3,a3,1
    31c4:	0705                	addi	a4,a4,1
    31c6:	fce81ee3          	bne	a6,a4,31a2 <amikb_process+0x14e>
    31ca:	4901                	li	s2,0
    31cc:	4999                	li	s3,6
    31ce:	083c                	addi	a5,sp,24
    31d0:	97ca                	add	a5,a5,s2
    31d2:	2388                	lbu	a0,0(a5)
    31d4:	c511                	beqz	a0,31e0 <amikb_process+0x18c>
    31d6:	c93ff0ef          	jal	ra,2e68 <scancode_to_amiga>
    31da:	4581                	li	a1,0
    31dc:	cb5ff0ef          	jal	ra,2e90 <amikb_send>
    31e0:	0905                	addi	s2,s2,1
    31e2:	ff3916e3          	bne	s2,s3,31ce <amikb_process+0x17a>
    31e6:	4901                	li	s2,0
    31e8:	4999                	li	s3,6
    31ea:	081c                	addi	a5,sp,16
    31ec:	97ca                	add	a5,a5,s2
    31ee:	2388                	lbu	a0,0(a5)
    31f0:	c511                	beqz	a0,31fc <amikb_process+0x1a8>
    31f2:	c77ff0ef          	jal	ra,2e68 <scancode_to_amiga>
    31f6:	4585                	li	a1,1
    31f8:	c99ff0ef          	jal	ra,2e90 <amikb_send>
    31fc:	0905                	addi	s2,s2,1
    31fe:	ff3916e3          	bne	s2,s3,31ea <amikb_process+0x196>
    3202:	47a5                	li	a5,9
    3204:	473d                	li	a4,15
    3206:	00f486b3          	add	a3,s1,a5
    320a:	2290                	lbu	a2,0(a3)
    320c:	00f406b3          	add	a3,s0,a5
    3210:	0785                	addi	a5,a5,1
    3212:	a290                	sb	a2,0(a3)
    3214:	fee799e3          	bne	a5,a4,3206 <amikb_process+0x1b2>
    3218:	6105                	addi	sp,sp,32
    321a:	f71fc06f          	j	18a <__riscv_restore_4>
    321e:	8082                	ret

00003220 <main>:
    3220:	f21fc2ef          	jal	t0,140 <__riscv_save_12>
    3224:	1d2010ef          	jal	ra,43f6 <Delay_Init>
    3228:	6571                	lui	a0,0x1c
    322a:	20050513          	addi	a0,a0,512 # 1c200 <_data_lma+0x1628c>
    322e:	25e010ef          	jal	ra,448c <USART_Printf_Init>
    3232:	20000437          	lui	s0,0x20000
    3236:	07442583          	lw	a1,116(s0) # 20000074 <SystemCoreClock>
    323a:	00006537          	lui	a0,0x6
    323e:	e6850513          	addi	a0,a0,-408 # 5e68 <scancodeamiga+0xe0>
    3242:	3d6010ef          	jal	ra,4618 <iprintf>
    3246:	00006537          	lui	a0,0x6
    324a:	e7850513          	addi	a0,a0,-392 # 5e78 <scancodeamiga+0xf0>
    324e:	4de010ef          	jal	ra,472c <puts>
    3252:	07442583          	lw	a1,116(s0)
    3256:	6789                	lui	a5,0x2
    3258:	71078793          	addi	a5,a5,1808 # 2710 <parse_report_descriptor+0x234>
    325c:	02f5d5b3          	divu	a1,a1,a5
    3260:	4525                	li	a0,9
    3262:	20002a37          	lui	s4,0x20002
    3266:	20000937          	lui	s2,0x20000
    326a:	a8ca0c93          	addi	s9,s4,-1396 # 20001a8c <RootHubDev>
    326e:	53890413          	addi	s0,s2,1336 # 20000538 <HostCtl>
    3272:	11000993          	li	s3,272
    3276:	15fd                	addi	a1,a1,-1
    3278:	05c2                	slli	a1,a1,0x10
    327a:	81c1                	srli	a1,a1,0x10
    327c:	fcdfc0ef          	jal	ra,248 <TIM3_Init>
    3280:	00006537          	lui	a0,0x6
    3284:	e8c50513          	addi	a0,a0,-372 # 5e8c <scancodeamiga+0x104>
    3288:	4a4010ef          	jal	ra,472c <puts>
    328c:	00006537          	lui	a0,0x6
    3290:	e9c50513          	addi	a0,a0,-356 # 5e9c <scancodeamiga+0x114>
    3294:	498010ef          	jal	ra,472c <puts>
    3298:	9f1fe0ef          	jal	ra,1c88 <USBFS_RCC_Init>
    329c:	4505                	li	a0,1
    329e:	a31fe0ef          	jal	ra,1cce <USBFS_Host_Init>
    32a2:	467d                	li	a2,31
    32a4:	4581                	li	a1,0
    32a6:	a8ca0513          	addi	a0,s4,-1396
    32aa:	ef7fc0ef          	jal	ra,1a0 <memset>
    32ae:	6605                	lui	a2,0x1
    32b0:	55460613          	addi	a2,a2,1364 # 1554 <USBH_MainDeal+0x84>
    32b4:	4581                	li	a1,0
    32b6:	53890513          	addi	a0,s2,1336
    32ba:	ee7fc0ef          	jal	ra,1a0 <memset>
    32be:	01d000ef          	jal	ra,3ada <TIM2_Init>
    32c2:	07f000ef          	jal	ra,3b40 <TIM4_Init>
    32c6:	a7fff0ef          	jal	ra,2d44 <GPIO_Config>
    32ca:	2a39                	jal	33e8 <InitMouse>
    32cc:	00006537          	lui	a0,0x6
    32d0:	eb050513          	addi	a0,a0,-336 # 5eb0 <scancodeamiga+0x128>
    32d4:	458010ef          	jal	ra,472c <puts>
    32d8:	a8ca0a13          	addi	s4,s4,-1396
    32dc:	4b0d                	li	s6,3
    32de:	4b85                	li	s7,1
    32e0:	9f0fe0ef          	jal	ra,14d0 <USBH_MainDeal>
    32e4:	001cc783          	lbu	a5,1(s9)
    32e8:	01678d63          	beq	a5,s6,3302 <main+0xe2>
    32ec:	001a4703          	lbu	a4,1(s4)
    32f0:	47a5                	li	a5,9
    32f2:	fef717e3          	bne	a4,a5,32e0 <main+0xc0>
    32f6:	4a85                	li	s5,1
    32f8:	53890b13          	addi	s6,s2,1336
    32fc:	4d05                	li	s10,1
    32fe:	4d8d                	li	s11,3
    3300:	a8e1                	j	33d8 <main+0x1b8>
    3302:	53890a93          	addi	s5,s2,1336
    3306:	4481                	li	s1,0
    3308:	4d09                	li	s10,2
    330a:	4c11                	li	s8,4
    330c:	033487b3          	mul	a5,s1,s3
    3310:	97a2                	add	a5,a5,s0
    3312:	0467d783          	lhu	a5,70(a5)
    3316:	8b8d                	andi	a5,a5,3
    3318:	01779763          	bne	a5,s7,3326 <main+0x106>
    331c:	004a8513          	addi	a0,s5,4
    3320:	963ff0ef          	jal	ra,2c82 <USBH_GetMouseInfo>
    3324:	22c9                	jal	34e6 <ProcessMouse>
    3326:	033487b3          	mul	a5,s1,s3
    332a:	97a2                	add	a5,a5,s0
    332c:	0467d783          	lhu	a5,70(a5)
    3330:	8b8d                	andi	a5,a5,3
    3332:	01679863          	bne	a5,s6,3342 <main+0x122>
    3336:	004a8513          	addi	a0,s5,4
    333a:	962ff0ef          	jal	ra,249c <GetGamepadInfo>
    333e:	979ff0ef          	jal	ra,2cb6 <ProcessGamepad>
    3342:	033487b3          	mul	a5,s1,s3
    3346:	97a2                	add	a5,a5,s0
    3348:	0467d783          	lhu	a5,70(a5)
    334c:	8b8d                	andi	a5,a5,3
    334e:	01a79863          	bne	a5,s10,335e <main+0x13e>
    3352:	004a8513          	addi	a0,s5,4
    3356:	f08ff0ef          	jal	ra,2a5e <USBH_HID_GetKeybdInfo>
    335a:	cfbff0ef          	jal	ra,3054 <amikb_process>
    335e:	0485                	addi	s1,s1,1
    3360:	110a8a93          	addi	s5,s5,272
    3364:	fb8494e3          	bne	s1,s8,330c <main+0xec>
    3368:	b751                	j	32ec <main+0xcc>
    336a:	033b86b3          	mul	a3,s7,s3
    336e:	96a6                	add	a3,a3,s1
    3370:	96da                	add	a3,a3,s6
    3372:	0466d683          	lhu	a3,70(a3)
    3376:	8a8d                	andi	a3,a3,3
    3378:	01a69763          	bne	a3,s10,3386 <main+0x166>
    337c:	018b0533          	add	a0,s6,s8
    3380:	903ff0ef          	jal	ra,2c82 <USBH_GetMouseInfo>
    3384:	228d                	jal	34e6 <ProcessMouse>
    3386:	033b86b3          	mul	a3,s7,s3
    338a:	96a6                	add	a3,a3,s1
    338c:	96a2                	add	a3,a3,s0
    338e:	0466d683          	lhu	a3,70(a3)
    3392:	8a8d                	andi	a3,a3,3
    3394:	01b69863          	bne	a3,s11,33a4 <main+0x184>
    3398:	01840533          	add	a0,s0,s8
    339c:	900ff0ef          	jal	ra,249c <GetGamepadInfo>
    33a0:	917ff0ef          	jal	ra,2cb6 <ProcessGamepad>
    33a4:	033b86b3          	mul	a3,s7,s3
    33a8:	4789                	li	a5,2
    33aa:	96a6                	add	a3,a3,s1
    33ac:	96a2                	add	a3,a3,s0
    33ae:	0466d683          	lhu	a3,70(a3)
    33b2:	8a8d                	andi	a3,a3,3
    33b4:	00f69863          	bne	a3,a5,33c4 <main+0x1a4>
    33b8:	01840533          	add	a0,s0,s8
    33bc:	ea2ff0ef          	jal	ra,2a5e <USBH_HID_GetKeybdInfo>
    33c0:	c95ff0ef          	jal	ra,3054 <amikb_process>
    33c4:	0b85                	addi	s7,s7,1
    33c6:	4791                	li	a5,4
    33c8:	110c0c13          	addi	s8,s8,272
    33cc:	f8fb9fe3          	bne	s7,a5,336a <main+0x14a>
    33d0:	0a85                	addi	s5,s5,1
    33d2:	4795                	li	a5,5
    33d4:	f0fa84e3          	beq	s5,a5,32dc <main+0xbc>
    33d8:	44400793          	li	a5,1092
    33dc:	02fa84b3          	mul	s1,s5,a5
    33e0:	4b81                	li	s7,0
    33e2:	00448c13          	addi	s8,s1,4
    33e6:	b751                	j	336a <main+0x14a>

000033e8 <InitMouse>:
    33e8:	d89fc2ef          	jal	t0,170 <__riscv_save_0>
    33ec:	20002537          	lui	a0,0x20002
    33f0:	b9850513          	addi	a0,a0,-1128 # 20001b98 <ScrollBuffer>
    33f4:	7f2000ef          	jal	ra,3be6 <FifoInit>
    33f8:	d9dfc06f          	j	194 <__riscv_restore_0>

000033fc <processMouseMovement>:
    33fc:	08a05e63          	blez	a0,3498 <processMouseMovement+0x9c>
    3400:	c689                	beqz	a3,340a <processMouseMovement+0xe>
    3402:	4785                	li	a5,1
    3404:	00f50363          	beq	a0,a5,340a <processMouseMovement+0xe>
    3408:	8505                	srai	a0,a0,0x1
    340a:	0542                	slli	a0,a0,0x10
    340c:	8141                	srli	a0,a0,0x10
    340e:	e195                	bnez	a1,3432 <processMouseMovement+0x36>
    3410:	89a18793          	addi	a5,gp,-1894 # 2000010a <mouseDistanceX>
    3414:	239a                	lhu	a4,0(a5)
    3416:	953a                	add	a0,a0,a4
    3418:	0542                	slli	a0,a0,0x10
    341a:	8541                	srai	a0,a0,0x10
    341c:	a38a                	sh	a0,0(a5)
    341e:	89a18713          	addi	a4,gp,-1894 # 2000010a <mouseDistanceX>
    3422:	231a                	lhu	a4,0(a4)
    3424:	12c00693          	li	a3,300
    3428:	89a18793          	addi	a5,gp,-1894 # 2000010a <mouseDistanceX>
    342c:	0742                	slli	a4,a4,0x10
    342e:	8741                	srai	a4,a4,0x10
    3430:	a00d                	j	3452 <processMouseMovement+0x56>
    3432:	89c18793          	addi	a5,gp,-1892 # 2000010c <mouseDistanceY>
    3436:	239a                	lhu	a4,0(a5)
    3438:	953a                	add	a0,a0,a4
    343a:	0542                	slli	a0,a0,0x10
    343c:	8541                	srai	a0,a0,0x10
    343e:	a38a                	sh	a0,0(a5)
    3440:	89c18713          	addi	a4,gp,-1892 # 2000010c <mouseDistanceY>
    3444:	231a                	lhu	a4,0(a4)
    3446:	12c00693          	li	a3,300
    344a:	89c18793          	addi	a5,gp,-1892 # 2000010c <mouseDistanceY>
    344e:	0742                	slli	a4,a4,0x10
    3450:	8741                	srai	a4,a4,0x10
    3452:	00e6d363          	bge	a3,a4,3458 <processMouseMovement+0x5c>
    3456:	a396                	sh	a3,0(a5)
    3458:	238a                	lhu	a0,0(a5)
    345a:	07f00713          	li	a4,127
    345e:	01051793          	slli	a5,a0,0x10
    3462:	83c1                	srli	a5,a5,0x10
    3464:	06f76e63          	bltu	a4,a5,34e0 <processMouseMovement+0xe4>
    3468:	0ff00513          	li	a0,255
    346c:	c39d                	beqz	a5,3492 <processMouseMovement+0x96>
    346e:	6509                	lui	a0,0x2
    3470:	71050513          	addi	a0,a0,1808 # 2710 <parse_report_descriptor+0x234>
    3474:	02f54533          	div	a0,a0,a5
    3478:	8119                	srli	a0,a0,0x6
    347a:	157d                	addi	a0,a0,-1
    347c:	0542                	slli	a0,a0,0x10
    347e:	8141                	srli	a0,a0,0x10
    3480:	ca09                	beqz	a2,3492 <processMouseMovement+0x96>
    3482:	4719                	li	a4,6
    3484:	87aa                	mv	a5,a0
    3486:	00e57363          	bgeu	a0,a4,348c <processMouseMovement+0x90>
    348a:	4799                	li	a5,6
    348c:	01079513          	slli	a0,a5,0x10
    3490:	8141                	srli	a0,a0,0x10
    3492:	0ff57513          	andi	a0,a0,255
    3496:	8082                	ret
    3498:	cd0d                	beqz	a0,34d2 <processMouseMovement+0xd6>
    349a:	c699                	beqz	a3,34a8 <processMouseMovement+0xac>
    349c:	57fd                	li	a5,-1
    349e:	00f50563          	beq	a0,a5,34a8 <processMouseMovement+0xac>
    34a2:	4789                	li	a5,2
    34a4:	02f54533          	div	a0,a0,a5
    34a8:	0542                	slli	a0,a0,0x10
    34aa:	8141                	srli	a0,a0,0x10
    34ac:	e991                	bnez	a1,34c0 <processMouseMovement+0xc4>
    34ae:	89a18713          	addi	a4,gp,-1894 # 2000010a <mouseDistanceX>
    34b2:	231e                	lhu	a5,0(a4)
    34b4:	40a78533          	sub	a0,a5,a0
    34b8:	0542                	slli	a0,a0,0x10
    34ba:	8541                	srai	a0,a0,0x10
    34bc:	a30a                	sh	a0,0(a4)
    34be:	b785                	j	341e <processMouseMovement+0x22>
    34c0:	89c18713          	addi	a4,gp,-1892 # 2000010c <mouseDistanceY>
    34c4:	231e                	lhu	a5,0(a4)
    34c6:	40a78533          	sub	a0,a5,a0
    34ca:	0542                	slli	a0,a0,0x10
    34cc:	8541                	srai	a0,a0,0x10
    34ce:	a30a                	sh	a0,0(a4)
    34d0:	bf85                	j	3440 <processMouseMovement+0x44>
    34d2:	e581                	bnez	a1,34da <processMouseMovement+0xde>
    34d4:	88019d23          	sh	zero,-1894(gp) # 2000010a <mouseDistanceX>
    34d8:	b799                	j	341e <processMouseMovement+0x22>
    34da:	88019e23          	sh	zero,-1892(gp) # 2000010c <mouseDistanceY>
    34de:	b78d                	j	3440 <processMouseMovement+0x44>
    34e0:	07f00793          	li	a5,127
    34e4:	b769                	j	346e <processMouseMovement+0x72>

000034e6 <ProcessMouse>:
    34e6:	1a050563          	beqz	a0,3690 <ProcessMouse+0x1aa>
    34ea:	c6dfc2ef          	jal	t0,156 <__riscv_save_4>
    34ee:	00051703          	lh	a4,0(a0)
    34f2:	1141                	addi	sp,sp,-16
    34f4:	0ee05b63          	blez	a4,35ea <ProcessMouse+0x104>
    34f8:	89818793          	addi	a5,gp,-1896 # 20000108 <mouseDirectionX>
    34fc:	2394                	lbu	a3,0(a5)
    34fe:	06e2                	slli	a3,a3,0x18
    3500:	86e1                	srai	a3,a3,0x18
    3502:	10069263          	bnez	a3,3606 <ProcessMouse+0x120>
    3506:	88019d23          	sh	zero,-1894(gp) # 2000010a <mouseDistanceX>
    350a:	4685                	li	a3,1
    350c:	a394                	sb	a3,0(a5)
    350e:	842a                	mv	s0,a0
    3510:	01871513          	slli	a0,a4,0x18
    3514:	4681                	li	a3,0
    3516:	4601                	li	a2,0
    3518:	4581                	li	a1,0
    351a:	8561                	srai	a0,a0,0x18
    351c:	ee1ff0ef          	jal	ra,33fc <processMouseMovement>
    3520:	200007b7          	lui	a5,0x20000
    3524:	06a788a3          	sb	a0,113(a5) # 20000071 <xTimerTop>
    3528:	00240503          	lb	a0,2(s0)
    352c:	4681                	li	a3,0
    352e:	4601                	li	a2,0
    3530:	4585                	li	a1,1
    3532:	ecbff0ef          	jal	ra,33fc <processMouseMovement>
    3536:	00440603          	lb	a2,4(s0)
    353a:	200007b7          	lui	a5,0x20000
    353e:	06a78923          	sb	a0,114(a5) # 20000072 <yTimerTop>
    3542:	40011537          	lui	a0,0x40011
    3546:	00163613          	seqz	a2,a2
    354a:	65a1                	lui	a1,0x8
    354c:	c0050513          	addi	a0,a0,-1024 # 40010c00 <_eusrstack+0x2000bc00>
    3550:	2d9000ef          	jal	ra,4028 <GPIO_WriteBit>
    3554:	8a018793          	addi	a5,gp,-1888 # 20000110 <previousMMB>
    3558:	239c                	lbu	a5,0(a5)
    355a:	000107a3          	sb	zero,15(sp)
    355e:	00841483          	lh	s1,8(s0)
    3562:	0ff7f793          	andi	a5,a5,255
    3566:	8a018913          	addi	s2,gp,-1888 # 20000110 <previousMMB>
    356a:	e39d                	bnez	a5,3590 <ProcessMouse+0xaa>
    356c:	00640983          	lb	s3,6(s0)
    3570:	4785                	li	a5,1
    3572:	00f99f63          	bne	s3,a5,3590 <ProcessMouse+0xaa>
    3576:	20002537          	lui	a0,0x20002
    357a:	47b5                	li	a5,13
    357c:	4605                	li	a2,1
    357e:	00f10593          	addi	a1,sp,15
    3582:	b9850513          	addi	a0,a0,-1128 # 20001b98 <ScrollBuffer>
    3586:	87dc                	sb	a5,15(sp)
    3588:	6c6000ef          	jal	ra,3c4e <FifoWrite>
    358c:	01390023          	sb	s3,0(s2)
    3590:	00094783          	lbu	a5,0(s2)
    3594:	4705                	li	a4,1
    3596:	02f71963          	bne	a4,a5,35c8 <ProcessMouse+0xe2>
    359a:	00640783          	lb	a5,6(s0)
    359e:	e78d                	bnez	a5,35c8 <ProcessMouse+0xe2>
    35a0:	200029b7          	lui	s3,0x20002
    35a4:	47b9                	li	a5,14
    35a6:	4605                	li	a2,1
    35a8:	00f10593          	addi	a1,sp,15
    35ac:	b9898513          	addi	a0,s3,-1128 # 20001b98 <ScrollBuffer>
    35b0:	87dc                	sb	a5,15(sp)
    35b2:	69c000ef          	jal	ra,3c4e <FifoWrite>
    35b6:	4605                	li	a2,1
    35b8:	00f10593          	addi	a1,sp,15
    35bc:	b9898513          	addi	a0,s3,-1128
    35c0:	68e000ef          	jal	ra,3c4e <FifoWrite>
    35c4:	00090023          	sb	zero,0(s2)
    35c8:	00841783          	lh	a5,8(s0)
    35cc:	eba5                	bnez	a5,363c <ProcessMouse+0x156>
    35ce:	00540603          	lb	a2,5(s0)
    35d2:	40011537          	lui	a0,0x40011
    35d6:	6591                	lui	a1,0x4
    35d8:	00163613          	seqz	a2,a2
    35dc:	c0050513          	addi	a0,a0,-1024 # 40010c00 <_eusrstack+0x2000bc00>
    35e0:	249000ef          	jal	ra,4028 <GPIO_WriteBit>
    35e4:	0141                	addi	sp,sp,16
    35e6:	ba5fc06f          	j	18a <__riscv_restore_4>
    35ea:	cf11                	beqz	a4,3606 <ProcessMouse+0x120>
    35ec:	89818793          	addi	a5,gp,-1896 # 20000108 <mouseDirectionX>
    35f0:	2394                	lbu	a3,0(a5)
    35f2:	4605                	li	a2,1
    35f4:	06e2                	slli	a3,a3,0x18
    35f6:	86e1                	srai	a3,a3,0x18
    35f8:	00c69763          	bne	a3,a2,3606 <ProcessMouse+0x120>
    35fc:	88019d23          	sh	zero,-1894(gp) # 2000010a <mouseDistanceX>
    3600:	00078023          	sb	zero,0(a5)
    3604:	b729                	j	350e <ProcessMouse+0x28>
    3606:	00251783          	lh	a5,2(a0)
    360a:	00f05c63          	blez	a5,3622 <ProcessMouse+0x13c>
    360e:	89918793          	addi	a5,gp,-1895 # 20000109 <mouseDirectionY>
    3612:	2394                	lbu	a3,0(a5)
    3614:	06e2                	slli	a3,a3,0x18
    3616:	86e1                	srai	a3,a3,0x18
    3618:	ee069be3          	bnez	a3,350e <ProcessMouse+0x28>
    361c:	88019e23          	sh	zero,-1892(gp) # 2000010c <mouseDistanceY>
    3620:	b5ed                	j	350a <ProcessMouse+0x24>
    3622:	ee0786e3          	beqz	a5,350e <ProcessMouse+0x28>
    3626:	89918793          	addi	a5,gp,-1895 # 20000109 <mouseDirectionY>
    362a:	2394                	lbu	a3,0(a5)
    362c:	4605                	li	a2,1
    362e:	06e2                	slli	a3,a3,0x18
    3630:	86e1                	srai	a3,a3,0x18
    3632:	ecc69ee3          	bne	a3,a2,350e <ProcessMouse+0x28>
    3636:	88019e23          	sh	zero,-1892(gp) # 2000010c <mouseDistanceY>
    363a:	b7d9                	j	3600 <ProcessMouse+0x11a>
    363c:	41f4d713          	srai	a4,s1,0x1f
    3640:	8cb9                	xor	s1,s1,a4
    3642:	8c99                	sub	s1,s1,a4
    3644:	0ff4f493          	andi	s1,s1,255
    3648:	02f05363          	blez	a5,366e <ProcessMouse+0x188>
    364c:	47ad                	li	a5,11
    364e:	87dc                	sb	a5,15(sp)
    3650:	4901                	li	s2,0
    3652:	200029b7          	lui	s3,0x20002
    3656:	f6990ce3          	beq	s2,s1,35ce <ProcessMouse+0xe8>
    365a:	4605                	li	a2,1
    365c:	00f10593          	addi	a1,sp,15
    3660:	b9898513          	addi	a0,s3,-1128 # 20001b98 <ScrollBuffer>
    3664:	0905                	addi	s2,s2,1
    3666:	23e5                	jal	3c4e <FifoWrite>
    3668:	0ff97913          	andi	s2,s2,255
    366c:	b7ed                	j	3656 <ProcessMouse+0x170>
    366e:	479d                	li	a5,7
    3670:	87dc                	sb	a5,15(sp)
    3672:	4901                	li	s2,0
    3674:	200029b7          	lui	s3,0x20002
    3678:	f4990be3          	beq	s2,s1,35ce <ProcessMouse+0xe8>
    367c:	4605                	li	a2,1
    367e:	00f10593          	addi	a1,sp,15
    3682:	b9898513          	addi	a0,s3,-1128 # 20001b98 <ScrollBuffer>
    3686:	0905                	addi	s2,s2,1
    3688:	23d9                	jal	3c4e <FifoWrite>
    368a:	0ff97913          	andi	s2,s2,255
    368e:	b7ed                	j	3678 <ProcessMouse+0x192>
    3690:	8082                	ret

00003692 <ProcessX_IRQ>:
    3692:	adffc2ef          	jal	t0,170 <__riscv_save_0>
    3696:	89a18793          	addi	a5,gp,-1894 # 2000010a <mouseDistanceX>
    369a:	239e                	lhu	a5,0(a5)
    369c:	89e18413          	addi	s0,gp,-1890 # 2000010e <mouseEncoderPhaseX>
    36a0:	07c2                	slli	a5,a5,0x10
    36a2:	87c1                	srai	a5,a5,0x10
    36a4:	0ef05863          	blez	a5,3794 <ProcessX_IRQ+0x102>
    36a8:	201c                	lbu	a5,0(s0)
    36aa:	89a18493          	addi	s1,gp,-1894 # 2000010a <mouseDistanceX>
    36ae:	07e2                	slli	a5,a5,0x18
    36b0:	87e1                	srai	a5,a5,0x18
    36b2:	eb91                	bnez	a5,36c6 <ProcessX_IRQ+0x34>
    36b4:	40011537          	lui	a0,0x40011
    36b8:	4601                	li	a2,0
    36ba:	10000593          	li	a1,256
    36be:	c0050513          	addi	a0,a0,-1024 # 40010c00 <_eusrstack+0x2000bc00>
    36c2:	167000ef          	jal	ra,4028 <GPIO_WriteBit>
    36c6:	201c                	lbu	a5,0(s0)
    36c8:	4705                	li	a4,1
    36ca:	07e2                	slli	a5,a5,0x18
    36cc:	87e1                	srai	a5,a5,0x18
    36ce:	00e79a63          	bne	a5,a4,36e2 <ProcessX_IRQ+0x50>
    36d2:	40011537          	lui	a0,0x40011
    36d6:	4601                	li	a2,0
    36d8:	45c1                	li	a1,16
    36da:	c0050513          	addi	a0,a0,-1024 # 40010c00 <_eusrstack+0x2000bc00>
    36de:	14b000ef          	jal	ra,4028 <GPIO_WriteBit>
    36e2:	201c                	lbu	a5,0(s0)
    36e4:	4709                	li	a4,2
    36e6:	07e2                	slli	a5,a5,0x18
    36e8:	87e1                	srai	a5,a5,0x18
    36ea:	00e79b63          	bne	a5,a4,3700 <ProcessX_IRQ+0x6e>
    36ee:	40011537          	lui	a0,0x40011
    36f2:	4605                	li	a2,1
    36f4:	10000593          	li	a1,256
    36f8:	c0050513          	addi	a0,a0,-1024 # 40010c00 <_eusrstack+0x2000bc00>
    36fc:	12d000ef          	jal	ra,4028 <GPIO_WriteBit>
    3700:	201c                	lbu	a5,0(s0)
    3702:	470d                	li	a4,3
    3704:	07e2                	slli	a5,a5,0x18
    3706:	87e1                	srai	a5,a5,0x18
    3708:	00e79a63          	bne	a5,a4,371c <ProcessX_IRQ+0x8a>
    370c:	40011537          	lui	a0,0x40011
    3710:	4605                	li	a2,1
    3712:	45c1                	li	a1,16
    3714:	c0050513          	addi	a0,a0,-1024 # 40010c00 <_eusrstack+0x2000bc00>
    3718:	111000ef          	jal	ra,4028 <GPIO_WriteBit>
    371c:	89818713          	addi	a4,gp,-1896 # 20000108 <mouseDirectionX>
    3720:	2318                	lbu	a4,0(a4)
    3722:	89818793          	addi	a5,gp,-1896 # 20000108 <mouseDirectionX>
    3726:	0762                	slli	a4,a4,0x18
    3728:	8761                	srai	a4,a4,0x18
    372a:	e335                	bnez	a4,378e <ProcessX_IRQ+0xfc>
    372c:	2018                	lbu	a4,0(s0)
    372e:	177d                	addi	a4,a4,-1
    3730:	0762                	slli	a4,a4,0x18
    3732:	8761                	srai	a4,a4,0x18
    3734:	a018                	sb	a4,0(s0)
    3736:	209a                	lhu	a4,0(s1)
    3738:	4685                	li	a3,1
    373a:	177d                	addi	a4,a4,-1
    373c:	0742                	slli	a4,a4,0x10
    373e:	8741                	srai	a4,a4,0x10
    3740:	a09a                	sh	a4,0(s1)
    3742:	2398                	lbu	a4,0(a5)
    3744:	0762                	slli	a4,a4,0x18
    3746:	8761                	srai	a4,a4,0x18
    3748:	00d71a63          	bne	a4,a3,375c <ProcessX_IRQ+0xca>
    374c:	2018                	lbu	a4,0(s0)
    374e:	468d                	li	a3,3
    3750:	0762                	slli	a4,a4,0x18
    3752:	8761                	srai	a4,a4,0x18
    3754:	00e6d463          	bge	a3,a4,375c <ProcessX_IRQ+0xca>
    3758:	00040023          	sb	zero,0(s0)
    375c:	239c                	lbu	a5,0(a5)
    375e:	07e2                	slli	a5,a5,0x18
    3760:	87e1                	srai	a5,a5,0x18
    3762:	eb81                	bnez	a5,3772 <ProcessX_IRQ+0xe0>
    3764:	201c                	lbu	a5,0(s0)
    3766:	07e2                	slli	a5,a5,0x18
    3768:	87e1                	srai	a5,a5,0x18
    376a:	0007d463          	bgez	a5,3772 <ProcessX_IRQ+0xe0>
    376e:	478d                	li	a5,3
    3770:	a01c                	sb	a5,0(s0)
    3772:	200007b7          	lui	a5,0x20000
    3776:	07178793          	addi	a5,a5,113 # 20000071 <xTimerTop>
    377a:	2398                	lbu	a4,0(a5)
    377c:	0ff77713          	andi	a4,a4,255
    3780:	ef09                	bnez	a4,379a <ProcessX_IRQ+0x108>
    3782:	400007b7          	lui	a5,0x40000
    3786:	4705                	li	a4,1
    3788:	b7da                	sh	a4,44(a5)
    378a:	a0bfc06f          	j	194 <__riscv_restore_0>
    378e:	2018                	lbu	a4,0(s0)
    3790:	0705                	addi	a4,a4,1
    3792:	bf79                	j	3730 <ProcessX_IRQ+0x9e>
    3794:	00040023          	sb	zero,0(s0)
    3798:	bfe9                	j	3772 <ProcessX_IRQ+0xe0>
    379a:	239c                	lbu	a5,0(a5)
    379c:	40000737          	lui	a4,0x40000
    37a0:	b75e                	sh	a5,44(a4)
    37a2:	b7e5                	j	378a <ProcessX_IRQ+0xf8>

000037a4 <ProcessY_IRQ>:
    37a4:	9cdfc2ef          	jal	t0,170 <__riscv_save_0>
    37a8:	89c18793          	addi	a5,gp,-1892 # 2000010c <mouseDistanceY>
    37ac:	239e                	lhu	a5,0(a5)
    37ae:	89f18413          	addi	s0,gp,-1889 # 2000010f <mouseEncoderPhaseY>
    37b2:	07c2                	slli	a5,a5,0x10
    37b4:	87c1                	srai	a5,a5,0x10
    37b6:	0ef05b63          	blez	a5,38ac <ProcessY_IRQ+0x108>
    37ba:	201c                	lbu	a5,0(s0)
    37bc:	470d                	li	a4,3
    37be:	89c18493          	addi	s1,gp,-1892 # 2000010c <mouseDistanceY>
    37c2:	07e2                	slli	a5,a5,0x18
    37c4:	87e1                	srai	a5,a5,0x18
    37c6:	00e79b63          	bne	a5,a4,37dc <ProcessY_IRQ+0x38>
    37ca:	40011537          	lui	a0,0x40011
    37ce:	4605                	li	a2,1
    37d0:	02000593          	li	a1,32
    37d4:	c0050513          	addi	a0,a0,-1024 # 40010c00 <_eusrstack+0x2000bc00>
    37d8:	051000ef          	jal	ra,4028 <GPIO_WriteBit>
    37dc:	201c                	lbu	a5,0(s0)
    37de:	4709                	li	a4,2
    37e0:	07e2                	slli	a5,a5,0x18
    37e2:	87e1                	srai	a5,a5,0x18
    37e4:	00e79b63          	bne	a5,a4,37fa <ProcessY_IRQ+0x56>
    37e8:	40011537          	lui	a0,0x40011
    37ec:	4605                	li	a2,1
    37ee:	20000593          	li	a1,512
    37f2:	c0050513          	addi	a0,a0,-1024 # 40010c00 <_eusrstack+0x2000bc00>
    37f6:	033000ef          	jal	ra,4028 <GPIO_WriteBit>
    37fa:	201c                	lbu	a5,0(s0)
    37fc:	4705                	li	a4,1
    37fe:	07e2                	slli	a5,a5,0x18
    3800:	87e1                	srai	a5,a5,0x18
    3802:	00e79b63          	bne	a5,a4,3818 <ProcessY_IRQ+0x74>
    3806:	40011537          	lui	a0,0x40011
    380a:	4601                	li	a2,0
    380c:	02000593          	li	a1,32
    3810:	c0050513          	addi	a0,a0,-1024 # 40010c00 <_eusrstack+0x2000bc00>
    3814:	015000ef          	jal	ra,4028 <GPIO_WriteBit>
    3818:	201c                	lbu	a5,0(s0)
    381a:	07e2                	slli	a5,a5,0x18
    381c:	87e1                	srai	a5,a5,0x18
    381e:	eb91                	bnez	a5,3832 <ProcessY_IRQ+0x8e>
    3820:	40011537          	lui	a0,0x40011
    3824:	4601                	li	a2,0
    3826:	20000593          	li	a1,512
    382a:	c0050513          	addi	a0,a0,-1024 # 40010c00 <_eusrstack+0x2000bc00>
    382e:	7fa000ef          	jal	ra,4028 <GPIO_WriteBit>
    3832:	89918713          	addi	a4,gp,-1895 # 20000109 <mouseDirectionY>
    3836:	2318                	lbu	a4,0(a4)
    3838:	89918793          	addi	a5,gp,-1895 # 20000109 <mouseDirectionY>
    383c:	0762                	slli	a4,a4,0x18
    383e:	8761                	srai	a4,a4,0x18
    3840:	e33d                	bnez	a4,38a6 <ProcessY_IRQ+0x102>
    3842:	2018                	lbu	a4,0(s0)
    3844:	177d                	addi	a4,a4,-1
    3846:	0762                	slli	a4,a4,0x18
    3848:	8761                	srai	a4,a4,0x18
    384a:	a018                	sb	a4,0(s0)
    384c:	209a                	lhu	a4,0(s1)
    384e:	4685                	li	a3,1
    3850:	177d                	addi	a4,a4,-1
    3852:	0742                	slli	a4,a4,0x10
    3854:	8741                	srai	a4,a4,0x10
    3856:	a09a                	sh	a4,0(s1)
    3858:	2398                	lbu	a4,0(a5)
    385a:	0762                	slli	a4,a4,0x18
    385c:	8761                	srai	a4,a4,0x18
    385e:	00d71a63          	bne	a4,a3,3872 <ProcessY_IRQ+0xce>
    3862:	2018                	lbu	a4,0(s0)
    3864:	468d                	li	a3,3
    3866:	0762                	slli	a4,a4,0x18
    3868:	8761                	srai	a4,a4,0x18
    386a:	00e6d463          	bge	a3,a4,3872 <ProcessY_IRQ+0xce>
    386e:	00040023          	sb	zero,0(s0)
    3872:	239c                	lbu	a5,0(a5)
    3874:	07e2                	slli	a5,a5,0x18
    3876:	87e1                	srai	a5,a5,0x18
    3878:	eb81                	bnez	a5,3888 <ProcessY_IRQ+0xe4>
    387a:	201c                	lbu	a5,0(s0)
    387c:	07e2                	slli	a5,a5,0x18
    387e:	87e1                	srai	a5,a5,0x18
    3880:	0007d463          	bgez	a5,3888 <ProcessY_IRQ+0xe4>
    3884:	478d                	li	a5,3
    3886:	a01c                	sb	a5,0(s0)
    3888:	200007b7          	lui	a5,0x20000
    388c:	07278793          	addi	a5,a5,114 # 20000072 <yTimerTop>
    3890:	2398                	lbu	a4,0(a5)
    3892:	0ff77713          	andi	a4,a4,255
    3896:	ef11                	bnez	a4,38b2 <ProcessY_IRQ+0x10e>
    3898:	400017b7          	lui	a5,0x40001
    389c:	4705                	li	a4,1
    389e:	82e79623          	sh	a4,-2004(a5) # 4000082c <_eusrstack+0x1fffb82c>
    38a2:	8f3fc06f          	j	194 <__riscv_restore_0>
    38a6:	2018                	lbu	a4,0(s0)
    38a8:	0705                	addi	a4,a4,1
    38aa:	bf71                	j	3846 <ProcessY_IRQ+0xa2>
    38ac:	00040023          	sb	zero,0(s0)
    38b0:	bfe1                	j	3888 <ProcessY_IRQ+0xe4>
    38b2:	2398                	lbu	a4,0(a5)
    38b4:	400017b7          	lui	a5,0x40001
    38b8:	b7dd                	j	389e <ProcessY_IRQ+0xfa>

000038ba <ProcessScrollIRQ>:
    38ba:	89dfc2ef          	jal	t0,156 <__riscv_save_4>
    38be:	40011437          	lui	s0,0x40011
    38c2:	1141                	addi	sp,sp,-16
    38c4:	c0040513          	addi	a0,s0,-1024 # 40010c00 <_eusrstack+0x2000bc00>
    38c8:	000107a3          	sb	zero,15(sp)
    38cc:	740000ef          	jal	ra,400c <GPIO_ReadOutputData>
    38d0:	84aa                	mv	s1,a0
    38d2:	20002537          	lui	a0,0x20002
    38d6:	4605                	li	a2,1
    38d8:	00f10593          	addi	a1,sp,15
    38dc:	b9850513          	addi	a0,a0,-1128 # 20001b98 <ScrollBuffer>
    38e0:	2e31                	jal	3bfc <FifoRead>
    38e2:	4601                	li	a2,0
    38e4:	6591                	lui	a1,0x4
    38e6:	c0040513          	addi	a0,s0,-1024
    38ea:	73e000ef          	jal	ra,4028 <GPIO_WriteBit>
    38ee:	879c                	lbu	a5,15(sp)
    38f0:	ef85                	bnez	a5,3928 <ProcessScrollIRQ+0x6e>
    38f2:	4605                	li	a2,1
    38f4:	45c1                	li	a1,16
    38f6:	c0040513          	addi	a0,s0,-1024
    38fa:	72e000ef          	jal	ra,4028 <GPIO_WriteBit>
    38fe:	4605                	li	a2,1
    3900:	02000593          	li	a1,32
    3904:	c0040513          	addi	a0,s0,-1024
    3908:	720000ef          	jal	ra,4028 <GPIO_WriteBit>
    390c:	4605                	li	a2,1
    390e:	10000593          	li	a1,256
    3912:	c0040513          	addi	a0,s0,-1024
    3916:	712000ef          	jal	ra,4028 <GPIO_WriteBit>
    391a:	4605                	li	a2,1
    391c:	20000593          	li	a1,512
    3920:	c0040513          	addi	a0,s0,-1024
    3924:	704000ef          	jal	ra,4028 <GPIO_WriteBit>
    3928:	8798                	lbu	a4,15(sp)
    392a:	47ad                	li	a5,11
    392c:	02f71b63          	bne	a4,a5,3962 <ProcessScrollIRQ+0xa8>
    3930:	40011437          	lui	s0,0x40011
    3934:	4601                	li	a2,0
    3936:	45c1                	li	a1,16
    3938:	c0040513          	addi	a0,s0,-1024 # 40010c00 <_eusrstack+0x2000bc00>
    393c:	25f5                	jal	4028 <GPIO_WriteBit>
    393e:	4601                	li	a2,0
    3940:	02000593          	li	a1,32
    3944:	c0040513          	addi	a0,s0,-1024
    3948:	25c5                	jal	4028 <GPIO_WriteBit>
    394a:	4605                	li	a2,1
    394c:	10000593          	li	a1,256
    3950:	c0040513          	addi	a0,s0,-1024
    3954:	2dd1                	jal	4028 <GPIO_WriteBit>
    3956:	4605                	li	a2,1
    3958:	20000593          	li	a1,512
    395c:	c0040513          	addi	a0,s0,-1024
    3960:	25e1                	jal	4028 <GPIO_WriteBit>
    3962:	8798                	lbu	a4,15(sp)
    3964:	479d                	li	a5,7
    3966:	02f71b63          	bne	a4,a5,399c <ProcessScrollIRQ+0xe2>
    396a:	40011437          	lui	s0,0x40011
    396e:	4605                	li	a2,1
    3970:	45c1                	li	a1,16
    3972:	c0040513          	addi	a0,s0,-1024 # 40010c00 <_eusrstack+0x2000bc00>
    3976:	2d4d                	jal	4028 <GPIO_WriteBit>
    3978:	4601                	li	a2,0
    397a:	02000593          	li	a1,32
    397e:	c0040513          	addi	a0,s0,-1024
    3982:	255d                	jal	4028 <GPIO_WriteBit>
    3984:	4601                	li	a2,0
    3986:	10000593          	li	a1,256
    398a:	c0040513          	addi	a0,s0,-1024
    398e:	2d69                	jal	4028 <GPIO_WriteBit>
    3990:	4605                	li	a2,1
    3992:	20000593          	li	a1,512
    3996:	c0040513          	addi	a0,s0,-1024
    399a:	2579                	jal	4028 <GPIO_WriteBit>
    399c:	8798                	lbu	a4,15(sp)
    399e:	47b5                	li	a5,13
    39a0:	02f71b63          	bne	a4,a5,39d6 <ProcessScrollIRQ+0x11c>
    39a4:	40011437          	lui	s0,0x40011
    39a8:	4601                	li	a2,0
    39aa:	45c1                	li	a1,16
    39ac:	c0040513          	addi	a0,s0,-1024 # 40010c00 <_eusrstack+0x2000bc00>
    39b0:	2da5                	jal	4028 <GPIO_WriteBit>
    39b2:	4601                	li	a2,0
    39b4:	02000593          	li	a1,32
    39b8:	c0040513          	addi	a0,s0,-1024
    39bc:	25b5                	jal	4028 <GPIO_WriteBit>
    39be:	4605                	li	a2,1
    39c0:	10000593          	li	a1,256
    39c4:	c0040513          	addi	a0,s0,-1024
    39c8:	2585                	jal	4028 <GPIO_WriteBit>
    39ca:	4601                	li	a2,0
    39cc:	20000593          	li	a1,512
    39d0:	c0040513          	addi	a0,s0,-1024
    39d4:	2d91                	jal	4028 <GPIO_WriteBit>
    39d6:	8798                	lbu	a4,15(sp)
    39d8:	47b9                	li	a5,14
    39da:	02f71b63          	bne	a4,a5,3a10 <ProcessScrollIRQ+0x156>
    39de:	40011437          	lui	s0,0x40011
    39e2:	4605                	li	a2,1
    39e4:	45c1                	li	a1,16
    39e6:	c0040513          	addi	a0,s0,-1024 # 40010c00 <_eusrstack+0x2000bc00>
    39ea:	2d3d                	jal	4028 <GPIO_WriteBit>
    39ec:	4601                	li	a2,0
    39ee:	02000593          	li	a1,32
    39f2:	c0040513          	addi	a0,s0,-1024
    39f6:	2d0d                	jal	4028 <GPIO_WriteBit>
    39f8:	4601                	li	a2,0
    39fa:	10000593          	li	a1,256
    39fe:	c0040513          	addi	a0,s0,-1024
    3a02:	251d                	jal	4028 <GPIO_WriteBit>
    3a04:	4601                	li	a2,0
    3a06:	20000593          	li	a1,512
    3a0a:	c0040513          	addi	a0,s0,-1024
    3a0e:	2d29                	jal	4028 <GPIO_WriteBit>
    3a10:	40011437          	lui	s0,0x40011
    3a14:	c0040993          	addi	s3,s0,-1024 # 40010c00 <_eusrstack+0x2000bc00>
    3a18:	4905                	li	s2,1
    3a1a:	45a1                	li	a1,8
    3a1c:	854e                	mv	a0,s3
    3a1e:	2bd1                	jal	3ff2 <GPIO_ReadInputDataBit>
    3a20:	ff251de3          	bne	a0,s2,3a1a <ProcessScrollIRQ+0x160>
    3a24:	85a6                	mv	a1,s1
    3a26:	c0040513          	addi	a0,s0,-1024
    3a2a:	2d21                	jal	4042 <GPIO_Write>
    3a2c:	0141                	addi	sp,sp,16
    3a2e:	f5cfc06f          	j	18a <__riscv_restore_4>

00003a32 <SystemInit>:
    3a32:	400217b7          	lui	a5,0x40021
    3a36:	4398                	lw	a4,0(a5)
    3a38:	f8ff06b7          	lui	a3,0xf8ff0
    3a3c:	00176713          	ori	a4,a4,1
    3a40:	c398                	sw	a4,0(a5)
    3a42:	43d8                	lw	a4,4(a5)
    3a44:	8f75                	and	a4,a4,a3
    3a46:	c3d8                	sw	a4,4(a5)
    3a48:	4398                	lw	a4,0(a5)
    3a4a:	fef706b7          	lui	a3,0xfef70
    3a4e:	16fd                	addi	a3,a3,-1
    3a50:	8f75                	and	a4,a4,a3
    3a52:	c398                	sw	a4,0(a5)
    3a54:	4398                	lw	a4,0(a5)
    3a56:	fffc06b7          	lui	a3,0xfffc0
    3a5a:	16fd                	addi	a3,a3,-1
    3a5c:	8f75                	and	a4,a4,a3
    3a5e:	c398                	sw	a4,0(a5)
    3a60:	43d8                	lw	a4,4(a5)
    3a62:	ff8106b7          	lui	a3,0xff810
    3a66:	16fd                	addi	a3,a3,-1
    3a68:	8f75                	and	a4,a4,a3
    3a6a:	c3d8                	sw	a4,4(a5)
    3a6c:	009f0737          	lui	a4,0x9f0
    3a70:	c798                	sw	a4,8(a5)
    3a72:	400246b7          	lui	a3,0x40024
    3a76:	8006a703          	lw	a4,-2048(a3) # 40023800 <_eusrstack+0x2001e800>
    3a7a:	01076713          	ori	a4,a4,16
    3a7e:	80e6a023          	sw	a4,-2048(a3)
    3a82:	43d8                	lw	a4,4(a5)
    3a84:	ffc106b7          	lui	a3,0xffc10
    3a88:	16fd                	addi	a3,a3,-1
    3a8a:	c3d8                	sw	a4,4(a5)
    3a8c:	43d8                	lw	a4,4(a5)
    3a8e:	c3d8                	sw	a4,4(a5)
    3a90:	43d8                	lw	a4,4(a5)
    3a92:	40076713          	ori	a4,a4,1024
    3a96:	c3d8                	sw	a4,4(a5)
    3a98:	43d8                	lw	a4,4(a5)
    3a9a:	8f75                	and	a4,a4,a3
    3a9c:	c3d8                	sw	a4,4(a5)
    3a9e:	43d8                	lw	a4,4(a5)
    3aa0:	003c06b7          	lui	a3,0x3c0
    3aa4:	8f55                	or	a4,a4,a3
    3aa6:	c3d8                	sw	a4,4(a5)
    3aa8:	4398                	lw	a4,0(a5)
    3aaa:	010006b7          	lui	a3,0x1000
    3aae:	8f55                	or	a4,a4,a3
    3ab0:	c398                	sw	a4,0(a5)
    3ab2:	4398                	lw	a4,0(a5)
    3ab4:	00671693          	slli	a3,a4,0x6
    3ab8:	fe06dde3          	bgez	a3,3ab2 <SystemInit+0x80>
    3abc:	43d8                	lw	a4,4(a5)
    3abe:	400216b7          	lui	a3,0x40021
    3ac2:	9b71                	andi	a4,a4,-4
    3ac4:	c3d8                	sw	a4,4(a5)
    3ac6:	43d8                	lw	a4,4(a5)
    3ac8:	00276713          	ori	a4,a4,2
    3acc:	c3d8                	sw	a4,4(a5)
    3ace:	4721                	li	a4,8
    3ad0:	42dc                	lw	a5,4(a3)
    3ad2:	8bb1                	andi	a5,a5,12
    3ad4:	fee79ee3          	bne	a5,a4,3ad0 <SystemInit+0x9e>
    3ad8:	8082                	ret

00003ada <TIM2_Init>:
    3ada:	e96fc2ef          	jal	t0,170 <__riscv_save_0>
    3ade:	1101                	addi	sp,sp,-32
    3ae0:	4585                	li	a1,1
    3ae2:	4505                	li	a0,1
    3ae4:	ca02                	sw	zero,20(sp)
    3ae6:	cc02                	sw	zero,24(sp)
    3ae8:	00011e23          	sh	zero,28(sp)
    3aec:	c602                	sw	zero,12(sp)
    3aee:	c802                	sw	zero,16(sp)
    3af0:	27b1                	jal	423c <RCC_APB1PeriphClockCmd>
    3af2:	6795                	lui	a5,0x5
    3af4:	91f78793          	addi	a5,a5,-1761 # 491f <__sflush_r+0x2f>
    3af8:	ca3e                	sw	a5,20(sp)
    3afa:	084c                	addi	a1,sp,20
    3afc:	3e800793          	li	a5,1000
    3b00:	40000537          	lui	a0,0x40000
    3b04:	cc3e                	sw	a5,24(sp)
    3b06:	2f91                	jal	425a <TIM_TimeBaseInit>
    3b08:	4605                	li	a2,1
    3b0a:	4585                	li	a1,1
    3b0c:	40000537          	lui	a0,0x40000
    3b10:	7cc000ef          	jal	ra,42dc <TIM_ITConfig>
    3b14:	42c00793          	li	a5,1068
    3b18:	867c                	sh	a5,12(sp)
    3b1a:	4785                	li	a5,1
    3b1c:	875c                	sb	a5,14(sp)
    3b1e:	0068                	addi	a0,sp,12
    3b20:	4785                	li	a5,1
    3b22:	c83e                	sw	a5,16(sp)
    3b24:	2bb9                	jal	4082 <NVIC_Init>
    3b26:	4585                	li	a1,1
    3b28:	40000537          	lui	a0,0x40000
    3b2c:	798000ef          	jal	ra,42c4 <TIM_Cmd>
    3b30:	e000e7b7          	lui	a5,0xe000e
    3b34:	6705                	lui	a4,0x1
    3b36:	10e7a223          	sw	a4,260(a5) # e000e104 <_eusrstack+0xc0009104>
    3b3a:	6105                	addi	sp,sp,32
    3b3c:	e58fc06f          	j	194 <__riscv_restore_0>

00003b40 <TIM4_Init>:
    3b40:	e30fc2ef          	jal	t0,170 <__riscv_save_0>
    3b44:	1101                	addi	sp,sp,-32
    3b46:	4585                	li	a1,1
    3b48:	4511                	li	a0,4
    3b4a:	ca02                	sw	zero,20(sp)
    3b4c:	cc02                	sw	zero,24(sp)
    3b4e:	00011e23          	sh	zero,28(sp)
    3b52:	c602                	sw	zero,12(sp)
    3b54:	c802                	sw	zero,16(sp)
    3b56:	25dd                	jal	423c <RCC_APB1PeriphClockCmd>
    3b58:	6795                	lui	a5,0x5
    3b5a:	40001437          	lui	s0,0x40001
    3b5e:	91f78793          	addi	a5,a5,-1761 # 491f <__sflush_r+0x2f>
    3b62:	ca3e                	sw	a5,20(sp)
    3b64:	084c                	addi	a1,sp,20
    3b66:	3e800793          	li	a5,1000
    3b6a:	80040513          	addi	a0,s0,-2048 # 40000800 <_eusrstack+0x1fffb800>
    3b6e:	cc3e                	sw	a5,24(sp)
    3b70:	25ed                	jal	425a <TIM_TimeBaseInit>
    3b72:	4605                	li	a2,1
    3b74:	4585                	li	a1,1
    3b76:	80040513          	addi	a0,s0,-2048
    3b7a:	278d                	jal	42dc <TIM_ITConfig>
    3b7c:	32e00793          	li	a5,814
    3b80:	867c                	sh	a5,12(sp)
    3b82:	4785                	li	a5,1
    3b84:	875c                	sb	a5,14(sp)
    3b86:	0068                	addi	a0,sp,12
    3b88:	4785                	li	a5,1
    3b8a:	c83e                	sw	a5,16(sp)
    3b8c:	29dd                	jal	4082 <NVIC_Init>
    3b8e:	4585                	li	a1,1
    3b90:	80040513          	addi	a0,s0,-2048
    3b94:	2f05                	jal	42c4 <TIM_Cmd>
    3b96:	e000e7b7          	lui	a5,0xe000e
    3b9a:	6711                	lui	a4,0x4
    3b9c:	10e7a223          	sw	a4,260(a5) # e000e104 <_eusrstack+0xc0009104>
    3ba0:	6105                	addi	sp,sp,32
    3ba2:	df2fc06f          	j	194 <__riscv_restore_0>

00003ba6 <TIM2_IRQHandler>:
    3ba6:	4585                	li	a1,1
    3ba8:	40000537          	lui	a0,0x40000
    3bac:	2789                	jal	42ee <TIM_GetITStatus>
    3bae:	c519                	beqz	a0,3bbc <TIM2_IRQHandler+0x16>
    3bb0:	ae3ff0ef          	jal	ra,3692 <ProcessX_IRQ>
    3bb4:	4585                	li	a1,1
    3bb6:	40000537          	lui	a0,0x40000
    3bba:	27b1                	jal	4306 <TIM_ClearITPendingBit>
    3bbc:	30200073          	mret

00003bc0 <TIM4_IRQHandler>:
    3bc0:	1141                	addi	sp,sp,-16
    3bc2:	c622                	sw	s0,12(sp)
    3bc4:	40001437          	lui	s0,0x40001
    3bc8:	4585                	li	a1,1
    3bca:	80040513          	addi	a0,s0,-2048 # 40000800 <_eusrstack+0x1fffb800>
    3bce:	2705                	jal	42ee <TIM_GetITStatus>
    3bd0:	c519                	beqz	a0,3bde <TIM4_IRQHandler+0x1e>
    3bd2:	bd3ff0ef          	jal	ra,37a4 <ProcessY_IRQ>
    3bd6:	4585                	li	a1,1
    3bd8:	80040513          	addi	a0,s0,-2048
    3bdc:	272d                	jal	4306 <TIM_ClearITPendingBit>
    3bde:	4432                	lw	s0,12(sp)
    3be0:	0141                	addi	sp,sp,16
    3be2:	30200073          	mret

00003be6 <FifoInit>:
    3be6:	08000793          	li	a5,128
    3bea:	a51e                	sh	a5,8(a0)
    3bec:	00b50793          	addi	a5,a0,11 # 4000000b <_eusrstack+0x1fffb00b>
    3bf0:	00052223          	sw	zero,4(a0)
    3bf4:	00050523          	sb	zero,10(a0)
    3bf8:	c11c                	sw	a5,0(a0)
    3bfa:	8082                	ret

00003bfc <FifoRead>:
    3bfc:	2538                	lbu	a4,10(a0)
    3bfe:	87aa                	mv	a5,a0
    3c00:	c709                	beqz	a4,3c0a <FifoRead+0xe>
    3c02:	00078523          	sb	zero,10(a5)
    3c06:	8532                	mv	a0,a2
    3c08:	8082                	ret
    3c0a:	4705                	li	a4,1
    3c0c:	a538                	sb	a4,10(a0)
    3c0e:	4681                	li	a3,0
    3c10:	01069513          	slli	a0,a3,0x10
    3c14:	8141                	srli	a0,a0,0x10
    3c16:	fec576e3          	bgeu	a0,a2,3c02 <FifoRead+0x6>
    3c1a:	0067d803          	lhu	a6,6(a5)
    3c1e:	23da                	lhu	a4,4(a5)
    3c20:	03070463          	beq	a4,a6,3c48 <FifoRead+0x4c>
    3c24:	4398                	lw	a4,0(a5)
    3c26:	9742                	add	a4,a4,a6
    3c28:	2308                	lbu	a0,0(a4)
    3c2a:	00d58733          	add	a4,a1,a3
    3c2e:	a308                	sb	a0,0(a4)
    3c30:	23fa                	lhu	a4,6(a5)
    3c32:	278a                	lhu	a0,8(a5)
    3c34:	0705                	addi	a4,a4,1
    3c36:	0742                	slli	a4,a4,0x10
    3c38:	8341                	srli	a4,a4,0x10
    3c3a:	a3fa                	sh	a4,6(a5)
    3c3c:	00e51463          	bne	a0,a4,3c44 <FifoRead+0x48>
    3c40:	00079323          	sh	zero,6(a5)
    3c44:	0685                	addi	a3,a3,1
    3c46:	b7e9                	j	3c10 <FifoRead+0x14>
    3c48:	00078523          	sb	zero,10(a5)
    3c4c:	8082                	ret

00003c4e <FifoWrite>:
    3c4e:	2538                	lbu	a4,10(a0)
    3c50:	87aa                	mv	a5,a0
    3c52:	c709                	beqz	a4,3c5c <FifoWrite+0xe>
    3c54:	00078523          	sb	zero,10(a5)
    3c58:	8532                	mv	a0,a2
    3c5a:	8082                	ret
    3c5c:	4705                	li	a4,1
    3c5e:	a538                	sb	a4,10(a0)
    3c60:	4681                	li	a3,0
    3c62:	01069513          	slli	a0,a3,0x10
    3c66:	8141                	srli	a0,a0,0x10
    3c68:	fec576e3          	bgeu	a0,a2,3c54 <FifoWrite+0x6>
    3c6c:	0047d803          	lhu	a6,4(a5)
    3c70:	23fa                	lhu	a4,6(a5)
    3c72:	00180893          	addi	a7,a6,1
    3c76:	00e88763          	beq	a7,a4,3c84 <FifoWrite+0x36>
    3c7a:	0087d303          	lhu	t1,8(a5)
    3c7e:	00689663          	bne	a7,t1,3c8a <FifoWrite+0x3c>
    3c82:	e701                	bnez	a4,3c8a <FifoWrite+0x3c>
    3c84:	00078523          	sb	zero,10(a5)
    3c88:	8082                	ret
    3c8a:	00d58733          	add	a4,a1,a3
    3c8e:	2308                	lbu	a0,0(a4)
    3c90:	4398                	lw	a4,0(a5)
    3c92:	9742                	add	a4,a4,a6
    3c94:	a308                	sb	a0,0(a4)
    3c96:	23da                	lhu	a4,4(a5)
    3c98:	278a                	lhu	a0,8(a5)
    3c9a:	0705                	addi	a4,a4,1
    3c9c:	0742                	slli	a4,a4,0x10
    3c9e:	8341                	srli	a4,a4,0x10
    3ca0:	a3da                	sh	a4,4(a5)
    3ca2:	00e51463          	bne	a0,a4,3caa <FifoWrite+0x5c>
    3ca6:	00079223          	sh	zero,4(a5)
    3caa:	0685                	addi	a3,a3,1
    3cac:	bf5d                	j	3c62 <FifoWrite+0x14>

00003cae <collect_bits>:
    3cae:	0035d813          	srli	a6,a1,0x3
    3cb2:	0ff87813          	andi	a6,a6,255
    3cb6:	899d                	andi	a1,a1,7
    3cb8:	010508b3          	add	a7,a0,a6
    3cbc:	0ff00793          	li	a5,255
    3cc0:	0ff5f713          	andi	a4,a1,255
    3cc4:	00b797b3          	sll	a5,a5,a1
    3cc8:	0008c583          	lbu	a1,0(a7)
    3ccc:	48a1                	li	a7,8
    3cce:	40e888b3          	sub	a7,a7,a4
    3cd2:	8fed                	and	a5,a5,a1
    3cd4:	0ff8f893          	andi	a7,a7,255
    3cd8:	40e7d7b3          	sra	a5,a5,a4
    3cdc:	07166563          	bltu	a2,a7,3d46 <collect_bits+0x98>
    3ce0:	00180593          	addi	a1,a6,1
    3ce4:	ff860813          	addi	a6,a2,-8
    3ce8:	07c2                	slli	a5,a5,0x10
    3cea:	9742                	add	a4,a4,a6
    3cec:	0ff5f593          	andi	a1,a1,255
    3cf0:	83c1                	srli	a5,a5,0x10
    3cf2:	0ff77713          	andi	a4,a4,255
    3cf6:	4e9d                	li	t4,7
    3cf8:	0ff00f13          	li	t5,255
    3cfc:	4e21                	li	t3,8
    3cfe:	cb39                	beqz	a4,3d54 <collect_bits+0xa6>
    3d00:	0ff00813          	li	a6,255
    3d04:	00eee863          	bltu	t4,a4,3d14 <collect_bits+0x66>
    3d08:	40ee0833          	sub	a6,t3,a4
    3d0c:	410f5833          	sra	a6,t5,a6
    3d10:	0ff87813          	andi	a6,a6,255
    3d14:	00158313          	addi	t1,a1,1 # 4001 <GPIO_ReadInputDataBit+0xf>
    3d18:	95aa                	add	a1,a1,a0
    3d1a:	218c                	lbu	a1,0(a1)
    3d1c:	0ff37313          	andi	t1,t1,255
    3d20:	00b87833          	and	a6,a6,a1
    3d24:	01181833          	sll	a6,a6,a7
    3d28:	97c2                	add	a5,a5,a6
    3d2a:	07c2                	slli	a5,a5,0x10
    3d2c:	08a1                	addi	a7,a7,8
    3d2e:	83c1                	srli	a5,a5,0x10
    3d30:	0ff8f893          	andi	a7,a7,255
    3d34:	85ba                	mv	a1,a4
    3d36:	00ee7363          	bgeu	t3,a4,3d3c <collect_bits+0x8e>
    3d3a:	45a1                	li	a1,8
    3d3c:	8f0d                	sub	a4,a4,a1
    3d3e:	0ff77713          	andi	a4,a4,255
    3d42:	859a                	mv	a1,t1
    3d44:	bf6d                	j	3cfe <collect_bits+0x50>
    3d46:	4505                	li	a0,1
    3d48:	00c51533          	sll	a0,a0,a2
    3d4c:	157d                	addi	a0,a0,-1
    3d4e:	8fe9                	and	a5,a5,a0
    3d50:	07c2                	slli	a5,a5,0x10
    3d52:	83c1                	srli	a5,a5,0x10
    3d54:	c285                	beqz	a3,3d74 <collect_bits+0xc6>
    3d56:	fff60713          	addi	a4,a2,-1
    3d5a:	4605                	li	a2,1
    3d5c:	00e61633          	sll	a2,a2,a4
    3d60:	0642                	slli	a2,a2,0x10
    3d62:	8241                	srli	a2,a2,0x10
    3d64:	00c7f733          	and	a4,a5,a2
    3d68:	c711                	beqz	a4,3d74 <collect_bits+0xc6>
    3d6a:	8fd1                	or	a5,a5,a2
    3d6c:	0606                	slli	a2,a2,0x1
    3d6e:	0642                	slli	a2,a2,0x10
    3d70:	8241                	srli	a2,a2,0x10
    3d72:	fe65                	bnez	a2,3d6a <collect_bits+0xbc>
    3d74:	853e                	mv	a0,a5
    3d76:	8082                	ret
    3d78:	a001                	j	3d78 <collect_bits+0xca>
    3d7a:	a001                	j	3d7a <collect_bits+0xcc>

00003d7c <Ecall_M_Mode_Handler>:
    3d7c:	a001                	j	3d7c <Ecall_M_Mode_Handler>

00003d7e <Ecall_U_Mode_Handler>:
    3d7e:	a001                	j	3d7e <Ecall_U_Mode_Handler>

00003d80 <Break_Point_Handler>:
    3d80:	a001                	j	3d80 <Break_Point_Handler>

00003d82 <SysTick_Handler>:
    3d82:	a001                	j	3d82 <SysTick_Handler>

00003d84 <SW_Handler>:
    3d84:	a001                	j	3d84 <SW_Handler>

00003d86 <WWDG_IRQHandler>:
    3d86:	a001                	j	3d86 <WWDG_IRQHandler>

00003d88 <PVD_IRQHandler>:
    3d88:	a001                	j	3d88 <PVD_IRQHandler>

00003d8a <TAMPER_IRQHandler>:
    3d8a:	a001                	j	3d8a <TAMPER_IRQHandler>

00003d8c <RTC_IRQHandler>:
    3d8c:	a001                	j	3d8c <RTC_IRQHandler>

00003d8e <FLASH_IRQHandler>:
    3d8e:	a001                	j	3d8e <FLASH_IRQHandler>

00003d90 <RCC_IRQHandler>:
    3d90:	a001                	j	3d90 <RCC_IRQHandler>

00003d92 <EXTI0_IRQHandler>:
    3d92:	a001                	j	3d92 <EXTI0_IRQHandler>

00003d94 <EXTI1_IRQHandler>:
    3d94:	a001                	j	3d94 <EXTI1_IRQHandler>

00003d96 <EXTI2_IRQHandler>:
    3d96:	a001                	j	3d96 <EXTI2_IRQHandler>
    3d98:	a001                	j	3d98 <EXTI2_IRQHandler+0x2>

00003d9a <EXTI4_IRQHandler>:
    3d9a:	a001                	j	3d9a <EXTI4_IRQHandler>

00003d9c <DMA1_Channel1_IRQHandler>:
    3d9c:	a001                	j	3d9c <DMA1_Channel1_IRQHandler>

00003d9e <DMA1_Channel2_IRQHandler>:
    3d9e:	a001                	j	3d9e <DMA1_Channel2_IRQHandler>

00003da0 <DMA1_Channel3_IRQHandler>:
    3da0:	a001                	j	3da0 <DMA1_Channel3_IRQHandler>

00003da2 <DMA1_Channel4_IRQHandler>:
    3da2:	a001                	j	3da2 <DMA1_Channel4_IRQHandler>

00003da4 <DMA1_Channel5_IRQHandler>:
    3da4:	a001                	j	3da4 <DMA1_Channel5_IRQHandler>

00003da6 <DMA1_Channel6_IRQHandler>:
    3da6:	a001                	j	3da6 <DMA1_Channel6_IRQHandler>

00003da8 <DMA1_Channel7_IRQHandler>:
    3da8:	a001                	j	3da8 <DMA1_Channel7_IRQHandler>

00003daa <ADC1_2_IRQHandler>:
    3daa:	a001                	j	3daa <ADC1_2_IRQHandler>

00003dac <USB_HP_CAN1_TX_IRQHandler>:
    3dac:	a001                	j	3dac <USB_HP_CAN1_TX_IRQHandler>

00003dae <USB_LP_CAN1_RX0_IRQHandler>:
    3dae:	a001                	j	3dae <USB_LP_CAN1_RX0_IRQHandler>

00003db0 <CAN1_RX1_IRQHandler>:
    3db0:	a001                	j	3db0 <CAN1_RX1_IRQHandler>

00003db2 <CAN1_SCE_IRQHandler>:
    3db2:	a001                	j	3db2 <CAN1_SCE_IRQHandler>

00003db4 <EXTI9_5_IRQHandler>:
    3db4:	a001                	j	3db4 <EXTI9_5_IRQHandler>

00003db6 <TIM1_BRK_IRQHandler>:
    3db6:	a001                	j	3db6 <TIM1_BRK_IRQHandler>

00003db8 <TIM1_UP_IRQHandler>:
    3db8:	a001                	j	3db8 <TIM1_UP_IRQHandler>

00003dba <TIM1_TRG_COM_IRQHandler>:
    3dba:	a001                	j	3dba <TIM1_TRG_COM_IRQHandler>

00003dbc <TIM1_CC_IRQHandler>:
    3dbc:	a001                	j	3dbc <TIM1_CC_IRQHandler>
    3dbe:	a001                	j	3dbe <TIM1_CC_IRQHandler+0x2>
    3dc0:	a001                	j	3dc0 <TIM1_CC_IRQHandler+0x4>
    3dc2:	a001                	j	3dc2 <TIM1_CC_IRQHandler+0x6>

00003dc4 <I2C1_EV_IRQHandler>:
    3dc4:	a001                	j	3dc4 <I2C1_EV_IRQHandler>

00003dc6 <I2C1_ER_IRQHandler>:
    3dc6:	a001                	j	3dc6 <I2C1_ER_IRQHandler>

00003dc8 <I2C2_EV_IRQHandler>:
    3dc8:	a001                	j	3dc8 <I2C2_EV_IRQHandler>

00003dca <I2C2_ER_IRQHandler>:
    3dca:	a001                	j	3dca <I2C2_ER_IRQHandler>

00003dcc <SPI1_IRQHandler>:
    3dcc:	a001                	j	3dcc <SPI1_IRQHandler>

00003dce <SPI2_IRQHandler>:
    3dce:	a001                	j	3dce <SPI2_IRQHandler>

00003dd0 <USART1_IRQHandler>:
    3dd0:	a001                	j	3dd0 <USART1_IRQHandler>

00003dd2 <USART2_IRQHandler>:
    3dd2:	a001                	j	3dd2 <USART2_IRQHandler>

00003dd4 <USART3_IRQHandler>:
    3dd4:	a001                	j	3dd4 <USART3_IRQHandler>

00003dd6 <EXTI15_10_IRQHandler>:
    3dd6:	a001                	j	3dd6 <EXTI15_10_IRQHandler>

00003dd8 <RTCAlarm_IRQHandler>:
    3dd8:	a001                	j	3dd8 <RTCAlarm_IRQHandler>

00003dda <USBWakeUp_IRQHandler>:
    3dda:	a001                	j	3dda <USBWakeUp_IRQHandler>

00003ddc <USBHD_IRQHandler>:
    3ddc:	a001                	j	3ddc <USBHD_IRQHandler>

00003dde <USBHDWakeUp_IRQHandler>:
    3dde:	a001                	j	3dde <USBHDWakeUp_IRQHandler>

00003de0 <UART4_IRQHandler>:
    3de0:	a001                	j	3de0 <UART4_IRQHandler>

00003de2 <DMA1_Channel8_IRQHandler>:
    3de2:	a001                	j	3de2 <DMA1_Channel8_IRQHandler>

00003de4 <handle_reset>:
    3de4:	1fffd197          	auipc	gp,0x1fffd
    3de8:	a8c18193          	addi	gp,gp,-1396 # 20000870 <__global_pointer$>
    3dec:	20001117          	auipc	sp,0x20001
    3df0:	21410113          	addi	sp,sp,532 # 20005000 <_eusrstack>
    3df4:	00002517          	auipc	a0,0x2
    3df8:	18050513          	addi	a0,a0,384 # 5f74 <_data_lma>
    3dfc:	1fffc597          	auipc	a1,0x1fffc
    3e00:	20458593          	addi	a1,a1,516 # 20000000 <_data_vma>
    3e04:	88018613          	addi	a2,gp,-1920 # 200000f0 <_edata>
    3e08:	00c5fa63          	bgeu	a1,a2,3e1c <handle_reset+0x38>
    3e0c:	00052283          	lw	t0,0(a0)
    3e10:	0055a023          	sw	t0,0(a1)
    3e14:	0511                	addi	a0,a0,4
    3e16:	0591                	addi	a1,a1,4
    3e18:	fec5eae3          	bltu	a1,a2,3e0c <handle_reset+0x28>
    3e1c:	88018513          	addi	a0,gp,-1920 # 200000f0 <_edata>
    3e20:	1fffe597          	auipc	a1,0x1fffe
    3e24:	e0858593          	addi	a1,a1,-504 # 20001c28 <_ebss>
    3e28:	00b57763          	bgeu	a0,a1,3e36 <handle_reset+0x52>
    3e2c:	00052023          	sw	zero,0(a0)
    3e30:	0511                	addi	a0,a0,4
    3e32:	feb56de3          	bltu	a0,a1,3e2c <handle_reset+0x48>
    3e36:	42fd                	li	t0,31
    3e38:	bc029073          	csrw	0xbc0,t0
    3e3c:	428d                	li	t0,3
    3e3e:	80429073          	csrw	0x804,t0
    3e42:	08800293          	li	t0,136
    3e46:	3002a073          	csrs	mstatus,t0
    3e4a:	ffffc297          	auipc	t0,0xffffc
    3e4e:	1ee28293          	addi	t0,t0,494 # 38 <_einit>
    3e52:	0032e293          	ori	t0,t0,3
    3e56:	30529073          	csrw	mtvec,t0
    3e5a:	bd9ff0ef          	jal	ra,3a32 <SystemInit>
    3e5e:	fffff297          	auipc	t0,0xfffff
    3e62:	3c228293          	addi	t0,t0,962 # 3220 <main>
    3e66:	34129073          	csrw	mepc,t0
    3e6a:	30200073          	mret

00003e6e <EXTI_Init>:
    3e6e:	4158                	lw	a4,4(a0)
    3e70:	00052803          	lw	a6,0(a0)
    3e74:	454c                	lw	a1,12(a0)
    3e76:	40010637          	lui	a2,0x40010
    3e7a:	40060793          	addi	a5,a2,1024 # 40010400 <_eusrstack+0x2000b400>
    3e7e:	973e                	add	a4,a4,a5
    3e80:	fff84693          	not	a3,a6
    3e84:	c5b1                	beqz	a1,3ed0 <EXTI_Init+0x62>
    3e86:	40062583          	lw	a1,1024(a2)
    3e8a:	8df5                	and	a1,a1,a3
    3e8c:	40b62023          	sw	a1,1024(a2)
    3e90:	43d0                	lw	a2,4(a5)
    3e92:	8ef1                	and	a3,a3,a2
    3e94:	c3d4                	sw	a3,4(a5)
    3e96:	4314                	lw	a3,0(a4)
    3e98:	0106e6b3          	or	a3,a3,a6
    3e9c:	c314                	sw	a3,0(a4)
    3e9e:	4118                	lw	a4,0(a0)
    3ea0:	4790                	lw	a2,8(a5)
    3ea2:	fff74693          	not	a3,a4
    3ea6:	8e75                	and	a2,a2,a3
    3ea8:	c790                	sw	a2,8(a5)
    3eaa:	47d0                	lw	a2,12(a5)
    3eac:	8ef1                	and	a3,a3,a2
    3eae:	c7d4                	sw	a3,12(a5)
    3eb0:	4514                	lw	a3,8(a0)
    3eb2:	4641                	li	a2,16
    3eb4:	00c69963          	bne	a3,a2,3ec6 <EXTI_Init+0x58>
    3eb8:	4794                	lw	a3,8(a5)
    3eba:	8ed9                	or	a3,a3,a4
    3ebc:	c794                	sw	a3,8(a5)
    3ebe:	47d4                	lw	a3,12(a5)
    3ec0:	8f55                	or	a4,a4,a3
    3ec2:	c7d8                	sw	a4,12(a5)
    3ec4:	8082                	ret
    3ec6:	97b6                	add	a5,a5,a3
    3ec8:	4394                	lw	a3,0(a5)
    3eca:	8f55                	or	a4,a4,a3
    3ecc:	c398                	sw	a4,0(a5)
    3ece:	8082                	ret
    3ed0:	431c                	lw	a5,0(a4)
    3ed2:	8ff5                	and	a5,a5,a3
    3ed4:	c31c                	sw	a5,0(a4)
    3ed6:	8082                	ret

00003ed8 <EXTI_GetITStatus>:
    3ed8:	400107b7          	lui	a5,0x40010
    3edc:	40078713          	addi	a4,a5,1024 # 40010400 <_eusrstack+0x2000b400>
    3ee0:	4007a783          	lw	a5,1024(a5)
    3ee4:	4b58                	lw	a4,20(a4)
    3ee6:	8f69                	and	a4,a4,a0
    3ee8:	c709                	beqz	a4,3ef2 <EXTI_GetITStatus+0x1a>
    3eea:	8d7d                	and	a0,a0,a5
    3eec:	00a03533          	snez	a0,a0
    3ef0:	8082                	ret
    3ef2:	4501                	li	a0,0
    3ef4:	8082                	ret

00003ef6 <EXTI_ClearITPendingBit>:
    3ef6:	400107b7          	lui	a5,0x40010
    3efa:	40a7aa23          	sw	a0,1044(a5) # 40010414 <_eusrstack+0x2000b414>
    3efe:	8082                	ret

00003f00 <GPIO_Init>:
    3f00:	459c                	lw	a5,8(a1)
    3f02:	0107f713          	andi	a4,a5,16
    3f06:	00f7f813          	andi	a6,a5,15
    3f0a:	c701                	beqz	a4,3f12 <GPIO_Init+0x12>
    3f0c:	41d8                	lw	a4,4(a1)
    3f0e:	00e86833          	or	a6,a6,a4
    3f12:	40022737          	lui	a4,0x40022
    3f16:	5b14                	lw	a3,48(a4)
    3f18:	0f000737          	lui	a4,0xf000
    3f1c:	8f75                	and	a4,a4,a3
    3f1e:	eb4d                	bnez	a4,3fd0 <GPIO_Init+0xd0>
    3f20:	4685                	li	a3,1
    3f22:	8ad180a3          	sb	a3,-1887(gp) # 20000111 <MCU_Version>
    3f26:	40011737          	lui	a4,0x40011
    3f2a:	00e51563          	bne	a0,a4,3f34 <GPIO_Init+0x34>
    3f2e:	219a                	lhu	a4,0(a1)
    3f30:	8335                	srli	a4,a4,0xd
    3f32:	a19a                	sh	a4,0(a1)
    3f34:	218e                	lhu	a1,0(a1)
    3f36:	0ff5f713          	andi	a4,a1,255
    3f3a:	c339                	beqz	a4,3f80 <GPIO_Init+0x80>
    3f3c:	4118                	lw	a4,0(a0)
    3f3e:	4681                	li	a3,0
    3f40:	4e85                	li	t4,1
    3f42:	4f3d                	li	t5,15
    3f44:	02800f93          	li	t6,40
    3f48:	04800293          	li	t0,72
    3f4c:	4e21                	li	t3,8
    3f4e:	00de9633          	sll	a2,t4,a3
    3f52:	00c5f8b3          	and	a7,a1,a2
    3f56:	03161163          	bne	a2,a7,3f78 <GPIO_Init+0x78>
    3f5a:	00269893          	slli	a7,a3,0x2
    3f5e:	011f1333          	sll	t1,t5,a7
    3f62:	fff34313          	not	t1,t1
    3f66:	00e37733          	and	a4,t1,a4
    3f6a:	011818b3          	sll	a7,a6,a7
    3f6e:	00e8e733          	or	a4,a7,a4
    3f72:	07f79763          	bne	a5,t6,3fe0 <GPIO_Init+0xe0>
    3f76:	c950                	sw	a2,20(a0)
    3f78:	0685                	addi	a3,a3,1
    3f7a:	fdc69ae3          	bne	a3,t3,3f4e <GPIO_Init+0x4e>
    3f7e:	c118                	sw	a4,0(a0)
    3f80:	0ff00713          	li	a4,255
    3f84:	04b77563          	bgeu	a4,a1,3fce <GPIO_Init+0xce>
    3f88:	4154                	lw	a3,4(a0)
    3f8a:	4621                	li	a2,8
    3f8c:	4e85                	li	t4,1
    3f8e:	4f3d                	li	t5,15
    3f90:	02800f93          	li	t6,40
    3f94:	04800293          	li	t0,72
    3f98:	4e41                	li	t3,16
    3f9a:	00ce98b3          	sll	a7,t4,a2
    3f9e:	0115f733          	and	a4,a1,a7
    3fa2:	02e89263          	bne	a7,a4,3fc6 <GPIO_Init+0xc6>
    3fa6:	00261713          	slli	a4,a2,0x2
    3faa:	1701                	addi	a4,a4,-32
    3fac:	00ef1333          	sll	t1,t5,a4
    3fb0:	fff34313          	not	t1,t1
    3fb4:	00d376b3          	and	a3,t1,a3
    3fb8:	00e81733          	sll	a4,a6,a4
    3fbc:	8ed9                	or	a3,a3,a4
    3fbe:	03f79563          	bne	a5,t6,3fe8 <GPIO_Init+0xe8>
    3fc2:	01152a23          	sw	a7,20(a0)
    3fc6:	0605                	addi	a2,a2,1
    3fc8:	fdc619e3          	bne	a2,t3,3f9a <GPIO_Init+0x9a>
    3fcc:	c154                	sw	a3,4(a0)
    3fce:	8082                	ret
    3fd0:	40011737          	lui	a4,0x40011
    3fd4:	f6e510e3          	bne	a0,a4,3f34 <GPIO_Init+0x34>
    3fd8:	8a11c703          	lbu	a4,-1887(gp) # 20000111 <MCU_Version>
    3fdc:	df21                	beqz	a4,3f34 <GPIO_Init+0x34>
    3fde:	bf81                	j	3f2e <GPIO_Init+0x2e>
    3fe0:	f8579ce3          	bne	a5,t0,3f78 <GPIO_Init+0x78>
    3fe4:	c910                	sw	a2,16(a0)
    3fe6:	bf49                	j	3f78 <GPIO_Init+0x78>
    3fe8:	fc579fe3          	bne	a5,t0,3fc6 <GPIO_Init+0xc6>
    3fec:	01152823          	sw	a7,16(a0)
    3ff0:	bfd9                	j	3fc6 <GPIO_Init+0xc6>

00003ff2 <GPIO_ReadInputDataBit>:
    3ff2:	400117b7          	lui	a5,0x40011
    3ff6:	00f51663          	bne	a0,a5,4002 <GPIO_ReadInputDataBit+0x10>
    3ffa:	8a11c783          	lbu	a5,-1887(gp) # 20000111 <MCU_Version>
    3ffe:	c391                	beqz	a5,4002 <GPIO_ReadInputDataBit+0x10>
    4000:	81b5                	srli	a1,a1,0xd
    4002:	4508                	lw	a0,8(a0)
    4004:	8d6d                	and	a0,a0,a1
    4006:	00a03533          	snez	a0,a0
    400a:	8082                	ret

0000400c <GPIO_ReadOutputData>:
    400c:	400117b7          	lui	a5,0x40011
    4010:	00f51a63          	bne	a0,a5,4024 <GPIO_ReadOutputData+0x18>
    4014:	8a11c783          	lbu	a5,-1887(gp) # 20000111 <MCU_Version>
    4018:	c791                	beqz	a5,4024 <GPIO_ReadOutputData+0x18>
    401a:	4548                	lw	a0,12(a0)
    401c:	0536                	slli	a0,a0,0xd
    401e:	0542                	slli	a0,a0,0x10
    4020:	8141                	srli	a0,a0,0x10
    4022:	8082                	ret
    4024:	4548                	lw	a0,12(a0)
    4026:	bfe5                	j	401e <GPIO_ReadOutputData+0x12>

00004028 <GPIO_WriteBit>:
    4028:	400117b7          	lui	a5,0x40011
    402c:	00f51663          	bne	a0,a5,4038 <GPIO_WriteBit+0x10>
    4030:	8a11c783          	lbu	a5,-1887(gp) # 20000111 <MCU_Version>
    4034:	c391                	beqz	a5,4038 <GPIO_WriteBit+0x10>
    4036:	81b5                	srli	a1,a1,0xd
    4038:	c219                	beqz	a2,403e <GPIO_WriteBit+0x16>
    403a:	c90c                	sw	a1,16(a0)
    403c:	8082                	ret
    403e:	c94c                	sw	a1,20(a0)
    4040:	8082                	ret

00004042 <GPIO_Write>:
    4042:	400117b7          	lui	a5,0x40011
    4046:	00f51663          	bne	a0,a5,4052 <GPIO_Write+0x10>
    404a:	8a11c783          	lbu	a5,-1887(gp) # 20000111 <MCU_Version>
    404e:	c391                	beqz	a5,4052 <GPIO_Write+0x10>
    4050:	81b5                	srli	a1,a1,0xd
    4052:	c54c                	sw	a1,12(a0)
    4054:	8082                	ret

00004056 <GPIO_EXTILineConfig>:
    4056:	0fc5f713          	andi	a4,a1,252
    405a:	0035f793          	andi	a5,a1,3
    405e:	400105b7          	lui	a1,0x40010
    4062:	95ba                	add	a1,a1,a4
    4064:	4594                	lw	a3,8(a1)
    4066:	078a                	slli	a5,a5,0x2
    4068:	473d                	li	a4,15
    406a:	00f71733          	sll	a4,a4,a5
    406e:	fff74713          	not	a4,a4
    4072:	8f75                	and	a4,a4,a3
    4074:	c598                	sw	a4,8(a1)
    4076:	4598                	lw	a4,8(a1)
    4078:	00f51533          	sll	a0,a0,a5
    407c:	8d59                	or	a0,a0,a4
    407e:	c588                	sw	a0,8(a1)
    4080:	8082                	ret

00004082 <NVIC_Init>:
    4082:	8a418793          	addi	a5,gp,-1884 # 20000114 <NVIC_Priority_Group>
    4086:	4394                	lw	a3,0(a5)
    4088:	2118                	lbu	a4,0(a0)
    408a:	e681                	bnez	a3,4092 <NVIC_Init+0x10>
    408c:	213c                	lbu	a5,2(a0)
    408e:	0792                	slli	a5,a5,0x4
    4090:	a821                	j	40a8 <NVIC_Init+0x26>
    4092:	4394                	lw	a3,0(a5)
    4094:	4605                	li	a2,1
    4096:	02c69f63          	bne	a3,a2,40d4 <NVIC_Init+0x52>
    409a:	213c                	lbu	a5,2(a0)
    409c:	3110                	lbu	a2,1(a0)
    409e:	0792                	slli	a5,a5,0x4
    40a0:	00d61463          	bne	a2,a3,40a8 <NVIC_Init+0x26>
    40a4:	f807e793          	ori	a5,a5,-128
    40a8:	e000e6b7          	lui	a3,0xe000e
    40ac:	0ff7f793          	andi	a5,a5,255
    40b0:	96ba                	add	a3,a3,a4
    40b2:	40f68023          	sb	a5,1024(a3) # e000e400 <_eusrstack+0xc0009400>
    40b6:	4685                	li	a3,1
    40b8:	00575793          	srli	a5,a4,0x5
    40bc:	00e69733          	sll	a4,a3,a4
    40c0:	4154                	lw	a3,4(a0)
    40c2:	c2a5                	beqz	a3,4122 <NVIC_Init+0xa0>
    40c4:	04078793          	addi	a5,a5,64 # 40011040 <_eusrstack+0x2000c040>
    40c8:	078a                	slli	a5,a5,0x2
    40ca:	e000e6b7          	lui	a3,0xe000e
    40ce:	97b6                	add	a5,a5,a3
    40d0:	c398                	sw	a4,0(a5)
    40d2:	8082                	ret
    40d4:	438c                	lw	a1,0(a5)
    40d6:	4689                	li	a3,2
    40d8:	02d59163          	bne	a1,a3,40fa <NVIC_Init+0x78>
    40dc:	3114                	lbu	a3,1(a0)
    40de:	213c                	lbu	a5,2(a0)
    40e0:	00d66563          	bltu	a2,a3,40ea <NVIC_Init+0x68>
    40e4:	068a                	slli	a3,a3,0x2
    40e6:	97b6                	add	a5,a5,a3
    40e8:	b75d                	j	408e <NVIC_Init+0xc>
    40ea:	03e68693          	addi	a3,a3,62 # e000e03e <_eusrstack+0xc000903e>
    40ee:	068a                	slli	a3,a3,0x2
    40f0:	97b6                	add	a5,a5,a3
    40f2:	0ff7f793          	andi	a5,a5,255
    40f6:	0792                	slli	a5,a5,0x4
    40f8:	b775                	j	40a4 <NVIC_Init+0x22>
    40fa:	4390                	lw	a2,0(a5)
    40fc:	468d                	li	a3,3
    40fe:	00d61c63          	bne	a2,a3,4116 <NVIC_Init+0x94>
    4102:	3114                	lbu	a3,1(a0)
    4104:	213c                	lbu	a5,2(a0)
    4106:	00d66463          	bltu	a2,a3,410e <NVIC_Init+0x8c>
    410a:	0686                	slli	a3,a3,0x1
    410c:	bfe9                	j	40e6 <NVIC_Init+0x64>
    410e:	07c68693          	addi	a3,a3,124
    4112:	0686                	slli	a3,a3,0x1
    4114:	bff1                	j	40f0 <NVIC_Init+0x6e>
    4116:	4394                	lw	a3,0(a5)
    4118:	4791                	li	a5,4
    411a:	f8f69ee3          	bne	a3,a5,40b6 <NVIC_Init+0x34>
    411e:	311c                	lbu	a5,1(a0)
    4120:	b7bd                	j	408e <NVIC_Init+0xc>
    4122:	06078793          	addi	a5,a5,96
    4126:	b74d                	j	40c8 <NVIC_Init+0x46>

00004128 <RCC_USBCLKConfig>:
    4128:	400217b7          	lui	a5,0x40021
    412c:	43d8                	lw	a4,4(a5)
    412e:	ff4006b7          	lui	a3,0xff400
    4132:	16fd                	addi	a3,a3,-1
    4134:	8f75                	and	a4,a4,a3
    4136:	c3d8                	sw	a4,4(a5)
    4138:	43d8                	lw	a4,4(a5)
    413a:	055a                	slli	a0,a0,0x16
    413c:	8d59                	or	a0,a0,a4
    413e:	c3c8                	sw	a0,4(a5)
    4140:	8082                	ret

00004142 <RCC_GetClocksFreq>:
    4142:	40021737          	lui	a4,0x40021
    4146:	435c                	lw	a5,4(a4)
    4148:	4691                	li	a3,4
    414a:	8bb1                	andi	a5,a5,12
    414c:	00d78563          	beq	a5,a3,4156 <RCC_GetClocksFreq+0x14>
    4150:	46a1                	li	a3,8
    4152:	06d78263          	beq	a5,a3,41b6 <RCC_GetClocksFreq+0x74>
    4156:	007a17b7          	lui	a5,0x7a1
    415a:	20078793          	addi	a5,a5,512 # 7a1200 <_data_lma+0x79b28c>
    415e:	c11c                	sw	a5,0(a0)
    4160:	40021637          	lui	a2,0x40021
    4164:	425c                	lw	a5,4(a2)
    4166:	20000737          	lui	a4,0x20000
    416a:	00070713          	mv	a4,a4
    416e:	8391                	srli	a5,a5,0x4
    4170:	8bbd                	andi	a5,a5,15
    4172:	97ba                	add	a5,a5,a4
    4174:	2394                	lbu	a3,0(a5)
    4176:	411c                	lw	a5,0(a0)
    4178:	00d7d7b3          	srl	a5,a5,a3
    417c:	c15c                	sw	a5,4(a0)
    417e:	4254                	lw	a3,4(a2)
    4180:	82a1                	srli	a3,a3,0x8
    4182:	8a9d                	andi	a3,a3,7
    4184:	96ba                	add	a3,a3,a4
    4186:	2294                	lbu	a3,0(a3)
    4188:	00d7d6b3          	srl	a3,a5,a3
    418c:	c514                	sw	a3,8(a0)
    418e:	4254                	lw	a3,4(a2)
    4190:	82ad                	srli	a3,a3,0xb
    4192:	8a9d                	andi	a3,a3,7
    4194:	9736                	add	a4,a4,a3
    4196:	2318                	lbu	a4,0(a4)
    4198:	00e7d7b3          	srl	a5,a5,a4
    419c:	c55c                	sw	a5,12(a0)
    419e:	4258                	lw	a4,4(a2)
    41a0:	8339                	srli	a4,a4,0xe
    41a2:	00377693          	andi	a3,a4,3
    41a6:	80818713          	addi	a4,gp,-2040 # 20000078 <ADCPrescTable>
    41aa:	9736                	add	a4,a4,a3
    41ac:	2318                	lbu	a4,0(a4)
    41ae:	02e7d7b3          	divu	a5,a5,a4
    41b2:	c91c                	sw	a5,16(a0)
    41b4:	8082                	ret
    41b6:	435c                	lw	a5,4(a4)
    41b8:	4358                	lw	a4,4(a4)
    41ba:	66c1                	lui	a3,0x10
    41bc:	83c9                	srli	a5,a5,0x12
    41be:	8bbd                	andi	a5,a5,15
    41c0:	8f75                	and	a4,a4,a3
    41c2:	0789                	addi	a5,a5,2
    41c4:	46c5                	li	a3,17
    41c6:	00d79363          	bne	a5,a3,41cc <RCC_GetClocksFreq+0x8a>
    41ca:	47c9                	li	a5,18
    41cc:	ef01                	bnez	a4,41e4 <RCC_GetClocksFreq+0xa2>
    41ce:	40024737          	lui	a4,0x40024
    41d2:	80072703          	lw	a4,-2048(a4) # 40023800 <_eusrstack+0x2001e800>
    41d6:	8b41                	andi	a4,a4,16
    41d8:	cf09                	beqz	a4,41f2 <RCC_GetClocksFreq+0xb0>
    41da:	007a1737          	lui	a4,0x7a1
    41de:	20070713          	addi	a4,a4,512 # 7a1200 <_data_lma+0x79b28c>
    41e2:	a821                	j	41fa <RCC_GetClocksFreq+0xb8>
    41e4:	40021737          	lui	a4,0x40021
    41e8:	4358                	lw	a4,4(a4)
    41ea:	00e71693          	slli	a3,a4,0xe
    41ee:	fe06d6e3          	bgez	a3,41da <RCC_GetClocksFreq+0x98>
    41f2:	003d1737          	lui	a4,0x3d1
    41f6:	90070713          	addi	a4,a4,-1792 # 3d0900 <_data_lma+0x3ca98c>
    41fa:	02e787b3          	mul	a5,a5,a4
    41fe:	b785                	j	415e <RCC_GetClocksFreq+0x1c>

00004200 <RCC_AHBPeriphClockCmd>:
    4200:	c599                	beqz	a1,420e <RCC_AHBPeriphClockCmd+0xe>
    4202:	40021737          	lui	a4,0x40021
    4206:	4b5c                	lw	a5,20(a4)
    4208:	8d5d                	or	a0,a0,a5
    420a:	cb48                	sw	a0,20(a4)
    420c:	8082                	ret
    420e:	400217b7          	lui	a5,0x40021
    4212:	4bd8                	lw	a4,20(a5)
    4214:	fff54513          	not	a0,a0
    4218:	8d79                	and	a0,a0,a4
    421a:	cbc8                	sw	a0,20(a5)
    421c:	8082                	ret

0000421e <RCC_APB2PeriphClockCmd>:
    421e:	c599                	beqz	a1,422c <RCC_APB2PeriphClockCmd+0xe>
    4220:	40021737          	lui	a4,0x40021
    4224:	4f1c                	lw	a5,24(a4)
    4226:	8d5d                	or	a0,a0,a5
    4228:	cf08                	sw	a0,24(a4)
    422a:	8082                	ret
    422c:	400217b7          	lui	a5,0x40021
    4230:	4f98                	lw	a4,24(a5)
    4232:	fff54513          	not	a0,a0
    4236:	8d79                	and	a0,a0,a4
    4238:	cf88                	sw	a0,24(a5)
    423a:	8082                	ret

0000423c <RCC_APB1PeriphClockCmd>:
    423c:	c599                	beqz	a1,424a <RCC_APB1PeriphClockCmd+0xe>
    423e:	40021737          	lui	a4,0x40021
    4242:	4f5c                	lw	a5,28(a4)
    4244:	8d5d                	or	a0,a0,a5
    4246:	cf48                	sw	a0,28(a4)
    4248:	8082                	ret
    424a:	400217b7          	lui	a5,0x40021
    424e:	4fd8                	lw	a4,28(a5)
    4250:	fff54513          	not	a0,a0
    4254:	8d79                	and	a0,a0,a4
    4256:	cfc8                	sw	a0,28(a5)
    4258:	8082                	ret

0000425a <TIM_TimeBaseInit>:
    425a:	211e                	lhu	a5,0(a0)
    425c:	40013737          	lui	a4,0x40013
    4260:	c0070713          	addi	a4,a4,-1024 # 40012c00 <_eusrstack+0x2000dc00>
    4264:	07c2                	slli	a5,a5,0x10
    4266:	83c1                	srli	a5,a5,0x10
    4268:	02e50463          	beq	a0,a4,4290 <TIM_TimeBaseInit+0x36>
    426c:	40000737          	lui	a4,0x40000
    4270:	02e50063          	beq	a0,a4,4290 <TIM_TimeBaseInit+0x36>
    4274:	40070713          	addi	a4,a4,1024 # 40000400 <_eusrstack+0x1fffb400>
    4278:	00e50c63          	beq	a0,a4,4290 <TIM_TimeBaseInit+0x36>
    427c:	40001737          	lui	a4,0x40001
    4280:	80070693          	addi	a3,a4,-2048 # 40000800 <_eusrstack+0x1fffb800>
    4284:	00d50663          	beq	a0,a3,4290 <TIM_TimeBaseInit+0x36>
    4288:	c0070713          	addi	a4,a4,-1024
    428c:	00e51663          	bne	a0,a4,4298 <TIM_TimeBaseInit+0x3e>
    4290:	21ba                	lhu	a4,2(a1)
    4292:	f8f7f793          	andi	a5,a5,-113
    4296:	8fd9                	or	a5,a5,a4
    4298:	21fa                	lhu	a4,6(a1)
    429a:	cff7f793          	andi	a5,a5,-769
    429e:	07c2                	slli	a5,a5,0x10
    42a0:	83c1                	srli	a5,a5,0x10
    42a2:	8fd9                	or	a5,a5,a4
    42a4:	a11e                	sh	a5,0(a0)
    42a6:	21de                	lhu	a5,4(a1)
    42a8:	b55e                	sh	a5,44(a0)
    42aa:	219e                	lhu	a5,0(a1)
    42ac:	b51e                	sh	a5,40(a0)
    42ae:	400137b7          	lui	a5,0x40013
    42b2:	c0078793          	addi	a5,a5,-1024 # 40012c00 <_eusrstack+0x2000dc00>
    42b6:	00f51463          	bne	a0,a5,42be <TIM_TimeBaseInit+0x64>
    42ba:	259c                	lbu	a5,8(a1)
    42bc:	b91e                	sh	a5,48(a0)
    42be:	4785                	li	a5,1
    42c0:	a95e                	sh	a5,20(a0)
    42c2:	8082                	ret

000042c4 <TIM_Cmd>:
    42c4:	211e                	lhu	a5,0(a0)
    42c6:	c589                	beqz	a1,42d0 <TIM_Cmd+0xc>
    42c8:	0017e793          	ori	a5,a5,1
    42cc:	a11e                	sh	a5,0(a0)
    42ce:	8082                	ret
    42d0:	07c2                	slli	a5,a5,0x10
    42d2:	83c1                	srli	a5,a5,0x10
    42d4:	9bf9                	andi	a5,a5,-2
    42d6:	07c2                	slli	a5,a5,0x10
    42d8:	83c1                	srli	a5,a5,0x10
    42da:	bfcd                	j	42cc <TIM_Cmd+0x8>

000042dc <TIM_ITConfig>:
    42dc:	255e                	lhu	a5,12(a0)
    42de:	c601                	beqz	a2,42e6 <TIM_ITConfig+0xa>
    42e0:	8ddd                	or	a1,a1,a5
    42e2:	a54e                	sh	a1,12(a0)
    42e4:	8082                	ret
    42e6:	fff5c593          	not	a1,a1
    42ea:	8dfd                	and	a1,a1,a5
    42ec:	bfdd                	j	42e2 <TIM_ITConfig+0x6>

000042ee <TIM_GetITStatus>:
    42ee:	291e                	lhu	a5,16(a0)
    42f0:	254a                	lhu	a0,12(a0)
    42f2:	8fed                	and	a5,a5,a1
    42f4:	0542                	slli	a0,a0,0x10
    42f6:	8141                	srli	a0,a0,0x10
    42f8:	c789                	beqz	a5,4302 <TIM_GetITStatus+0x14>
    42fa:	8d6d                	and	a0,a0,a1
    42fc:	00a03533          	snez	a0,a0
    4300:	8082                	ret
    4302:	4501                	li	a0,0
    4304:	8082                	ret

00004306 <TIM_ClearITPendingBit>:
    4306:	fff5c593          	not	a1,a1
    430a:	05c2                	slli	a1,a1,0x10
    430c:	81c1                	srli	a1,a1,0x10
    430e:	a90e                	sh	a1,16(a0)
    4310:	8082                	ret

00004312 <USART_Init>:
    4312:	e5ffb2ef          	jal	t0,170 <__riscv_save_0>
    4316:	2916                	lhu	a3,16(a0)
    4318:	77f5                	lui	a5,0xffffd
    431a:	17fd                	addi	a5,a5,-1
    431c:	8ff5                	and	a5,a5,a3
    431e:	21f6                	lhu	a3,6(a1)
    4320:	25da                	lhu	a4,12(a1)
    4322:	7179                	addi	sp,sp,-48
    4324:	8fd5                	or	a5,a5,a3
    4326:	a91e                	sh	a5,16(a0)
    4328:	2556                	lhu	a3,12(a0)
    432a:	77fd                	lui	a5,0xfffff
    432c:	9f378793          	addi	a5,a5,-1549 # ffffe9f3 <_eusrstack+0xdfff99f3>
    4330:	8ff5                	and	a5,a5,a3
    4332:	21d6                	lhu	a3,4(a1)
    4334:	842a                	mv	s0,a0
    4336:	c62e                	sw	a1,12(sp)
    4338:	8fd5                	or	a5,a5,a3
    433a:	2596                	lhu	a3,8(a1)
    433c:	8fd5                	or	a5,a5,a3
    433e:	25b6                	lhu	a3,10(a1)
    4340:	8fd5                	or	a5,a5,a3
    4342:	a55e                	sh	a5,12(a0)
    4344:	295e                	lhu	a5,20(a0)
    4346:	07c2                	slli	a5,a5,0x10
    4348:	83c1                	srli	a5,a5,0x10
    434a:	cff7f793          	andi	a5,a5,-769
    434e:	8fd9                	or	a5,a5,a4
    4350:	a95e                	sh	a5,20(a0)
    4352:	0868                	addi	a0,sp,28
    4354:	defff0ef          	jal	ra,4142 <RCC_GetClocksFreq>
    4358:	400147b7          	lui	a5,0x40014
    435c:	80078793          	addi	a5,a5,-2048 # 40013800 <_eusrstack+0x2000e800>
    4360:	45b2                	lw	a1,12(sp)
    4362:	04f41a63          	bne	s0,a5,43b6 <USART_Init+0xa4>
    4366:	57a2                	lw	a5,40(sp)
    4368:	2456                	lhu	a3,12(s0)
    436a:	4765                	li	a4,25
    436c:	02e787b3          	mul	a5,a5,a4
    4370:	06c2                	slli	a3,a3,0x10
    4372:	86c1                	srai	a3,a3,0x10
    4374:	4198                	lw	a4,0(a1)
    4376:	0406d263          	bgez	a3,43ba <USART_Init+0xa8>
    437a:	0706                	slli	a4,a4,0x1
    437c:	2452                	lhu	a2,12(s0)
    437e:	0642                	slli	a2,a2,0x10
    4380:	02e7d7b3          	divu	a5,a5,a4
    4384:	06400713          	li	a4,100
    4388:	8641                	srai	a2,a2,0x10
    438a:	02e7d6b3          	divu	a3,a5,a4
    438e:	02e7f7b3          	remu	a5,a5,a4
    4392:	0692                	slli	a3,a3,0x4
    4394:	02065563          	bgez	a2,43be <USART_Init+0xac>
    4398:	078e                	slli	a5,a5,0x3
    439a:	03278793          	addi	a5,a5,50
    439e:	02e7d7b3          	divu	a5,a5,a4
    43a2:	0077f713          	andi	a4,a5,7
    43a6:	00d767b3          	or	a5,a4,a3
    43aa:	07c2                	slli	a5,a5,0x10
    43ac:	83c1                	srli	a5,a5,0x10
    43ae:	a41e                	sh	a5,8(s0)
    43b0:	6145                	addi	sp,sp,48
    43b2:	de3fb06f          	j	194 <__riscv_restore_0>
    43b6:	5792                	lw	a5,36(sp)
    43b8:	bf45                	j	4368 <USART_Init+0x56>
    43ba:	070a                	slli	a4,a4,0x2
    43bc:	b7c1                	j	437c <USART_Init+0x6a>
    43be:	0792                	slli	a5,a5,0x4
    43c0:	03278793          	addi	a5,a5,50
    43c4:	02e7d7b3          	divu	a5,a5,a4
    43c8:	8bbd                	andi	a5,a5,15
    43ca:	8fd5                	or	a5,a5,a3
    43cc:	bff9                	j	43aa <USART_Init+0x98>

000043ce <USART_Cmd>:
    43ce:	c591                	beqz	a1,43da <USART_Cmd+0xc>
    43d0:	255e                	lhu	a5,12(a0)
    43d2:	6709                	lui	a4,0x2
    43d4:	8fd9                	or	a5,a5,a4
    43d6:	a55e                	sh	a5,12(a0)
    43d8:	8082                	ret
    43da:	255a                	lhu	a4,12(a0)
    43dc:	77f9                	lui	a5,0xffffe
    43de:	17fd                	addi	a5,a5,-1
    43e0:	8ff9                	and	a5,a5,a4
    43e2:	bfd5                	j	43d6 <USART_Cmd+0x8>

000043e4 <USART_SendData>:
    43e4:	1ff5f593          	andi	a1,a1,511
    43e8:	a14e                	sh	a1,4(a0)
    43ea:	8082                	ret

000043ec <USART_GetFlagStatus>:
    43ec:	210a                	lhu	a0,0(a0)
    43ee:	8d6d                	and	a0,a0,a1
    43f0:	00a03533          	snez	a0,a0
    43f4:	8082                	ret

000043f6 <Delay_Init>:
    43f6:	200007b7          	lui	a5,0x20000
    43fa:	0747a783          	lw	a5,116(a5) # 20000074 <SystemCoreClock>
    43fe:	007a1737          	lui	a4,0x7a1
    4402:	20070713          	addi	a4,a4,512 # 7a1200 <_data_lma+0x79b28c>
    4406:	02e7d7b3          	divu	a5,a5,a4
    440a:	0ff7f793          	andi	a5,a5,255
    440e:	8af18523          	sb	a5,-1878(gp) # 2000011a <p_us>
    4412:	3e800713          	li	a4,1000
    4416:	02e787b3          	mul	a5,a5,a4
    441a:	8af19423          	sh	a5,-1880(gp) # 20000118 <p_ms>
    441e:	8082                	ret

00004420 <Delay_Us>:
    4420:	e000f7b7          	lui	a5,0xe000f
    4424:	43d8                	lw	a4,4(a5)
    4426:	4681                	li	a3,0
    4428:	9b79                	andi	a4,a4,-2
    442a:	c3d8                	sw	a4,4(a5)
    442c:	8aa1c703          	lbu	a4,-1878(gp) # 2000011a <p_us>
    4430:	02a70633          	mul	a2,a4,a0
    4434:	cb90                	sw	a2,16(a5)
    4436:	cbd4                	sw	a3,20(a5)
    4438:	4398                	lw	a4,0(a5)
    443a:	01076713          	ori	a4,a4,16
    443e:	c398                	sw	a4,0(a5)
    4440:	4398                	lw	a4,0(a5)
    4442:	02176713          	ori	a4,a4,33
    4446:	c398                	sw	a4,0(a5)
    4448:	43d8                	lw	a4,4(a5)
    444a:	8b05                	andi	a4,a4,1
    444c:	df75                	beqz	a4,4448 <Delay_Us+0x28>
    444e:	4398                	lw	a4,0(a5)
    4450:	9b79                	andi	a4,a4,-2
    4452:	c398                	sw	a4,0(a5)
    4454:	8082                	ret

00004456 <Delay_Ms>:
    4456:	e000f7b7          	lui	a5,0xe000f
    445a:	43d8                	lw	a4,4(a5)
    445c:	4681                	li	a3,0
    445e:	9b79                	andi	a4,a4,-2
    4460:	c3d8                	sw	a4,4(a5)
    4462:	8a81d703          	lhu	a4,-1880(gp) # 20000118 <p_ms>
    4466:	02a70633          	mul	a2,a4,a0
    446a:	cb90                	sw	a2,16(a5)
    446c:	cbd4                	sw	a3,20(a5)
    446e:	4398                	lw	a4,0(a5)
    4470:	01076713          	ori	a4,a4,16
    4474:	c398                	sw	a4,0(a5)
    4476:	4398                	lw	a4,0(a5)
    4478:	02176713          	ori	a4,a4,33
    447c:	c398                	sw	a4,0(a5)
    447e:	43d8                	lw	a4,4(a5)
    4480:	8b05                	andi	a4,a4,1
    4482:	df75                	beqz	a4,447e <Delay_Ms+0x28>
    4484:	4398                	lw	a4,0(a5)
    4486:	9b79                	andi	a4,a4,-2
    4488:	c398                	sw	a4,0(a5)
    448a:	8082                	ret

0000448c <USART_Printf_Init>:
    448c:	ce5fb2ef          	jal	t0,170 <__riscv_save_0>
    4490:	842a                	mv	s0,a0
    4492:	6511                	lui	a0,0x4
    4494:	1101                	addi	sp,sp,-32
    4496:	4585                	li	a1,1
    4498:	0511                	addi	a0,a0,4
    449a:	d85ff0ef          	jal	ra,421e <RCC_APB2PeriphClockCmd>
    449e:	20000793          	li	a5,512
    44a2:	827c                	sh	a5,4(sp)
    44a4:	40011537          	lui	a0,0x40011
    44a8:	478d                	li	a5,3
    44aa:	c43e                	sw	a5,8(sp)
    44ac:	004c                	addi	a1,sp,4
    44ae:	47e1                	li	a5,24
    44b0:	80050513          	addi	a0,a0,-2048 # 40010800 <_eusrstack+0x2000b800>
    44b4:	c63e                	sw	a5,12(sp)
    44b6:	a4bff0ef          	jal	ra,3f00 <GPIO_Init>
    44ba:	c822                	sw	s0,16(sp)
    44bc:	40014437          	lui	s0,0x40014
    44c0:	000807b7          	lui	a5,0x80
    44c4:	080c                	addi	a1,sp,16
    44c6:	80040513          	addi	a0,s0,-2048 # 40013800 <_eusrstack+0x2000e800>
    44ca:	cc3e                	sw	a5,24(sp)
    44cc:	ca02                	sw	zero,20(sp)
    44ce:	00011e23          	sh	zero,28(sp)
    44d2:	e41ff0ef          	jal	ra,4312 <USART_Init>
    44d6:	4585                	li	a1,1
    44d8:	80040513          	addi	a0,s0,-2048
    44dc:	ef3ff0ef          	jal	ra,43ce <USART_Cmd>
    44e0:	6105                	addi	sp,sp,32
    44e2:	cb3fb06f          	j	194 <__riscv_restore_0>

000044e6 <_write>:
    44e6:	c71fb2ef          	jal	t0,156 <__riscv_save_4>
    44ea:	400144b7          	lui	s1,0x40014
    44ee:	89ae                	mv	s3,a1
    44f0:	8932                	mv	s2,a2
    44f2:	4401                	li	s0,0
    44f4:	80048493          	addi	s1,s1,-2048 # 40013800 <_eusrstack+0x2000e800>
    44f8:	01244563          	blt	s0,s2,4502 <_write+0x1c>
    44fc:	854a                	mv	a0,s2
    44fe:	c8dfb06f          	j	18a <__riscv_restore_4>
    4502:	04000593          	li	a1,64
    4506:	8526                	mv	a0,s1
    4508:	ee5ff0ef          	jal	ra,43ec <USART_GetFlagStatus>
    450c:	d97d                	beqz	a0,4502 <_write+0x1c>
    450e:	008987b3          	add	a5,s3,s0
    4512:	00078583          	lb	a1,0(a5) # 80000 <_data_lma+0x7a08c>
    4516:	8526                	mv	a0,s1
    4518:	0405                	addi	s0,s0,1
    451a:	05c2                	slli	a1,a1,0x10
    451c:	81c1                	srli	a1,a1,0x10
    451e:	ec7ff0ef          	jal	ra,43e4 <USART_SendData>
    4522:	bfd9                	j	44f8 <_write+0x12>

00004524 <_sbrk>:
    4524:	80c18713          	addi	a4,gp,-2036 # 2000007c <curbrk.4579>
    4528:	431c                	lw	a5,0(a4)
    452a:	200026b7          	lui	a3,0x20002
    452e:	c2868693          	addi	a3,a3,-984 # 20001c28 <_ebss>
    4532:	953e                	add	a0,a0,a5
    4534:	00d56b63          	bltu	a0,a3,454a <_sbrk+0x26>
    4538:	200056b7          	lui	a3,0x20005
    453c:	80068693          	addi	a3,a3,-2048 # 20004800 <_heap_end>
    4540:	00a6e563          	bltu	a3,a0,454a <_sbrk+0x26>
    4544:	c308                	sw	a0,0(a4)
    4546:	853e                	mv	a0,a5
    4548:	8082                	ret
    454a:	57fd                	li	a5,-1
    454c:	bfed                	j	4546 <_sbrk+0x22>

0000454e <memchr>:
    454e:	0ff5f593          	andi	a1,a1,255
    4552:	962a                	add	a2,a2,a0
    4554:	00c51463          	bne	a0,a2,455c <memchr+0xe>
    4558:	4501                	li	a0,0
    455a:	8082                	ret
    455c:	211c                	lbu	a5,0(a0)
    455e:	feb78ee3          	beq	a5,a1,455a <memchr+0xc>
    4562:	0505                	addi	a0,a0,1
    4564:	bfc5                	j	4554 <memchr+0x6>

00004566 <memcpy>:
    4566:	00a5c7b3          	xor	a5,a1,a0
    456a:	8b8d                	andi	a5,a5,3
    456c:	00c50733          	add	a4,a0,a2
    4570:	e781                	bnez	a5,4578 <memcpy+0x12>
    4572:	478d                	li	a5,3
    4574:	00c7ed63          	bltu	a5,a2,458e <memcpy+0x28>
    4578:	87aa                	mv	a5,a0
    457a:	08e57e63          	bgeu	a0,a4,4616 <memcpy+0xb0>
    457e:	2194                	lbu	a3,0(a1)
    4580:	0785                	addi	a5,a5,1
    4582:	0585                	addi	a1,a1,1
    4584:	fed78fa3          	sb	a3,-1(a5)
    4588:	fee7ebe3          	bltu	a5,a4,457e <memcpy+0x18>
    458c:	8082                	ret
    458e:	00357693          	andi	a3,a0,3
    4592:	87aa                	mv	a5,a0
    4594:	ca89                	beqz	a3,45a6 <memcpy+0x40>
    4596:	2194                	lbu	a3,0(a1)
    4598:	0785                	addi	a5,a5,1
    459a:	0585                	addi	a1,a1,1
    459c:	fed78fa3          	sb	a3,-1(a5)
    45a0:	0037f693          	andi	a3,a5,3
    45a4:	bfc5                	j	4594 <memcpy+0x2e>
    45a6:	ffc77693          	andi	a3,a4,-4
    45aa:	fe068613          	addi	a2,a3,-32
    45ae:	06c7f063          	bgeu	a5,a2,460e <memcpy+0xa8>
    45b2:	0005a383          	lw	t2,0(a1) # 40010000 <_eusrstack+0x2000b000>
    45b6:	0045a283          	lw	t0,4(a1)
    45ba:	0085af83          	lw	t6,8(a1)
    45be:	00c5af03          	lw	t5,12(a1)
    45c2:	0105ae83          	lw	t4,16(a1)
    45c6:	0145ae03          	lw	t3,20(a1)
    45ca:	0185a303          	lw	t1,24(a1)
    45ce:	01c5a883          	lw	a7,28(a1)
    45d2:	02458593          	addi	a1,a1,36
    45d6:	0077a023          	sw	t2,0(a5)
    45da:	ffc5a803          	lw	a6,-4(a1)
    45de:	0057a223          	sw	t0,4(a5)
    45e2:	01f7a423          	sw	t6,8(a5)
    45e6:	01e7a623          	sw	t5,12(a5)
    45ea:	01d7a823          	sw	t4,16(a5)
    45ee:	01c7aa23          	sw	t3,20(a5)
    45f2:	0067ac23          	sw	t1,24(a5)
    45f6:	0117ae23          	sw	a7,28(a5)
    45fa:	02478793          	addi	a5,a5,36
    45fe:	ff07ae23          	sw	a6,-4(a5)
    4602:	b775                	j	45ae <memcpy+0x48>
    4604:	4190                	lw	a2,0(a1)
    4606:	0791                	addi	a5,a5,4
    4608:	0591                	addi	a1,a1,4
    460a:	fec7ae23          	sw	a2,-4(a5)
    460e:	fed7ebe3          	bltu	a5,a3,4604 <memcpy+0x9e>
    4612:	f6e7e6e3          	bltu	a5,a4,457e <memcpy+0x18>
    4616:	8082                	ret

00004618 <iprintf>:
    4618:	7139                	addi	sp,sp,-64
    461a:	da3e                	sw	a5,52(sp)
    461c:	d22e                	sw	a1,36(sp)
    461e:	d432                	sw	a2,40(sp)
    4620:	d636                	sw	a3,44(sp)
    4622:	d83a                	sw	a4,48(sp)
    4624:	dc42                	sw	a6,56(sp)
    4626:	de46                	sw	a7,60(sp)
    4628:	81018793          	addi	a5,gp,-2032 # 20000080 <_impure_ptr>
    462c:	cc22                	sw	s0,24(sp)
    462e:	4380                	lw	s0,0(a5)
    4630:	ca26                	sw	s1,20(sp)
    4632:	ce06                	sw	ra,28(sp)
    4634:	84aa                	mv	s1,a0
    4636:	c409                	beqz	s0,4640 <iprintf+0x28>
    4638:	4c1c                	lw	a5,24(s0)
    463a:	e399                	bnez	a5,4640 <iprintf+0x28>
    463c:	8522                	mv	a0,s0
    463e:	29fd                	jal	4b3c <__sinit>
    4640:	440c                	lw	a1,8(s0)
    4642:	1054                	addi	a3,sp,36
    4644:	8626                	mv	a2,s1
    4646:	8522                	mv	a0,s0
    4648:	c636                	sw	a3,12(sp)
    464a:	139000ef          	jal	ra,4f82 <_vfiprintf_r>
    464e:	40f2                	lw	ra,28(sp)
    4650:	4462                	lw	s0,24(sp)
    4652:	44d2                	lw	s1,20(sp)
    4654:	6121                	addi	sp,sp,64
    4656:	8082                	ret

00004658 <_puts_r>:
    4658:	1101                	addi	sp,sp,-32
    465a:	ca26                	sw	s1,20(sp)
    465c:	c84a                	sw	s2,16(sp)
    465e:	ce06                	sw	ra,28(sp)
    4660:	cc22                	sw	s0,24(sp)
    4662:	c64e                	sw	s3,12(sp)
    4664:	c452                	sw	s4,8(sp)
    4666:	84aa                	mv	s1,a0
    4668:	892e                	mv	s2,a1
    466a:	c501                	beqz	a0,4672 <_puts_r+0x1a>
    466c:	4d1c                	lw	a5,24(a0)
    466e:	e391                	bnez	a5,4672 <_puts_r+0x1a>
    4670:	21f1                	jal	4b3c <__sinit>
    4672:	4c9c                	lw	a5,24(s1)
    4674:	4480                	lw	s0,8(s1)
    4676:	e399                	bnez	a5,467c <_puts_r+0x24>
    4678:	8526                	mv	a0,s1
    467a:	21c9                	jal	4b3c <__sinit>
    467c:	00002797          	auipc	a5,0x2
    4680:	87c78793          	addi	a5,a5,-1924 # 5ef8 <__sf_fake_stdin>
    4684:	02f41b63          	bne	s0,a5,46ba <_puts_r+0x62>
    4688:	40c0                	lw	s0,4(s1)
    468a:	245e                	lhu	a5,12(s0)
    468c:	8ba1                	andi	a5,a5,8
    468e:	c7b1                	beqz	a5,46da <_puts_r+0x82>
    4690:	481c                	lw	a5,16(s0)
    4692:	c7a1                	beqz	a5,46da <_puts_r+0x82>
    4694:	59fd                	li	s3,-1
    4696:	4a29                	li	s4,10
    4698:	441c                	lw	a5,8(s0)
    469a:	00094583          	lbu	a1,0(s2)
    469e:	17fd                	addi	a5,a5,-1
    46a0:	e9b1                	bnez	a1,46f4 <_puts_r+0x9c>
    46a2:	c41c                	sw	a5,8(s0)
    46a4:	0607dd63          	bgez	a5,471e <_puts_r+0xc6>
    46a8:	8622                	mv	a2,s0
    46aa:	45a9                	li	a1,10
    46ac:	8526                	mv	a0,s1
    46ae:	2069                	jal	4738 <__swbuf_r>
    46b0:	57fd                	li	a5,-1
    46b2:	02f50863          	beq	a0,a5,46e2 <_puts_r+0x8a>
    46b6:	4529                	li	a0,10
    46b8:	a035                	j	46e4 <_puts_r+0x8c>
    46ba:	00002797          	auipc	a5,0x2
    46be:	85e78793          	addi	a5,a5,-1954 # 5f18 <__sf_fake_stdout>
    46c2:	00f41463          	bne	s0,a5,46ca <_puts_r+0x72>
    46c6:	4480                	lw	s0,8(s1)
    46c8:	b7c9                	j	468a <_puts_r+0x32>
    46ca:	00002797          	auipc	a5,0x2
    46ce:	80e78793          	addi	a5,a5,-2034 # 5ed8 <__sf_fake_stderr>
    46d2:	faf41ce3          	bne	s0,a5,468a <_puts_r+0x32>
    46d6:	44c0                	lw	s0,12(s1)
    46d8:	bf4d                	j	468a <_puts_r+0x32>
    46da:	85a2                	mv	a1,s0
    46dc:	8526                	mv	a0,s1
    46de:	2a19                	jal	47f4 <__swsetup_r>
    46e0:	d955                	beqz	a0,4694 <_puts_r+0x3c>
    46e2:	557d                	li	a0,-1
    46e4:	40f2                	lw	ra,28(sp)
    46e6:	4462                	lw	s0,24(sp)
    46e8:	44d2                	lw	s1,20(sp)
    46ea:	4942                	lw	s2,16(sp)
    46ec:	49b2                	lw	s3,12(sp)
    46ee:	4a22                	lw	s4,8(sp)
    46f0:	6105                	addi	sp,sp,32
    46f2:	8082                	ret
    46f4:	c41c                	sw	a5,8(s0)
    46f6:	0905                	addi	s2,s2,1
    46f8:	0007d763          	bgez	a5,4706 <_puts_r+0xae>
    46fc:	4c18                	lw	a4,24(s0)
    46fe:	00e7ca63          	blt	a5,a4,4712 <_puts_r+0xba>
    4702:	01458863          	beq	a1,s4,4712 <_puts_r+0xba>
    4706:	401c                	lw	a5,0(s0)
    4708:	00178713          	addi	a4,a5,1
    470c:	c018                	sw	a4,0(s0)
    470e:	a38c                	sb	a1,0(a5)
    4710:	b761                	j	4698 <_puts_r+0x40>
    4712:	8622                	mv	a2,s0
    4714:	8526                	mv	a0,s1
    4716:	200d                	jal	4738 <__swbuf_r>
    4718:	f93510e3          	bne	a0,s3,4698 <_puts_r+0x40>
    471c:	b7d9                	j	46e2 <_puts_r+0x8a>
    471e:	401c                	lw	a5,0(s0)
    4720:	00178713          	addi	a4,a5,1
    4724:	c018                	sw	a4,0(s0)
    4726:	4729                	li	a4,10
    4728:	a398                	sb	a4,0(a5)
    472a:	b771                	j	46b6 <_puts_r+0x5e>

0000472c <puts>:
    472c:	81018793          	addi	a5,gp,-2032 # 20000080 <_impure_ptr>
    4730:	85aa                	mv	a1,a0
    4732:	4388                	lw	a0,0(a5)
    4734:	f25ff06f          	j	4658 <_puts_r>

00004738 <__swbuf_r>:
    4738:	1101                	addi	sp,sp,-32
    473a:	cc22                	sw	s0,24(sp)
    473c:	ca26                	sw	s1,20(sp)
    473e:	c84a                	sw	s2,16(sp)
    4740:	ce06                	sw	ra,28(sp)
    4742:	c64e                	sw	s3,12(sp)
    4744:	84aa                	mv	s1,a0
    4746:	892e                	mv	s2,a1
    4748:	8432                	mv	s0,a2
    474a:	c501                	beqz	a0,4752 <__swbuf_r+0x1a>
    474c:	4d1c                	lw	a5,24(a0)
    474e:	e391                	bnez	a5,4752 <__swbuf_r+0x1a>
    4750:	26f5                	jal	4b3c <__sinit>
    4752:	00001797          	auipc	a5,0x1
    4756:	7a678793          	addi	a5,a5,1958 # 5ef8 <__sf_fake_stdin>
    475a:	06f41763          	bne	s0,a5,47c8 <__swbuf_r+0x90>
    475e:	40c0                	lw	s0,4(s1)
    4760:	4c1c                	lw	a5,24(s0)
    4762:	c41c                	sw	a5,8(s0)
    4764:	245e                	lhu	a5,12(s0)
    4766:	8ba1                	andi	a5,a5,8
    4768:	c3c1                	beqz	a5,47e8 <__swbuf_r+0xb0>
    476a:	481c                	lw	a5,16(s0)
    476c:	cfb5                	beqz	a5,47e8 <__swbuf_r+0xb0>
    476e:	481c                	lw	a5,16(s0)
    4770:	4008                	lw	a0,0(s0)
    4772:	0ff97993          	andi	s3,s2,255
    4776:	0ff97913          	andi	s2,s2,255
    477a:	8d1d                	sub	a0,a0,a5
    477c:	485c                	lw	a5,20(s0)
    477e:	00f54663          	blt	a0,a5,478a <__swbuf_r+0x52>
    4782:	85a2                	mv	a1,s0
    4784:	8526                	mv	a0,s1
    4786:	2c69                	jal	4a20 <_fflush_r>
    4788:	e525                	bnez	a0,47f0 <__swbuf_r+0xb8>
    478a:	441c                	lw	a5,8(s0)
    478c:	0505                	addi	a0,a0,1
    478e:	17fd                	addi	a5,a5,-1
    4790:	c41c                	sw	a5,8(s0)
    4792:	401c                	lw	a5,0(s0)
    4794:	00178713          	addi	a4,a5,1
    4798:	c018                	sw	a4,0(s0)
    479a:	01378023          	sb	s3,0(a5)
    479e:	485c                	lw	a5,20(s0)
    47a0:	00a78863          	beq	a5,a0,47b0 <__swbuf_r+0x78>
    47a4:	245e                	lhu	a5,12(s0)
    47a6:	8b85                	andi	a5,a5,1
    47a8:	cb81                	beqz	a5,47b8 <__swbuf_r+0x80>
    47aa:	47a9                	li	a5,10
    47ac:	00f91663          	bne	s2,a5,47b8 <__swbuf_r+0x80>
    47b0:	85a2                	mv	a1,s0
    47b2:	8526                	mv	a0,s1
    47b4:	24b5                	jal	4a20 <_fflush_r>
    47b6:	ed0d                	bnez	a0,47f0 <__swbuf_r+0xb8>
    47b8:	40f2                	lw	ra,28(sp)
    47ba:	4462                	lw	s0,24(sp)
    47bc:	854a                	mv	a0,s2
    47be:	44d2                	lw	s1,20(sp)
    47c0:	4942                	lw	s2,16(sp)
    47c2:	49b2                	lw	s3,12(sp)
    47c4:	6105                	addi	sp,sp,32
    47c6:	8082                	ret
    47c8:	00001797          	auipc	a5,0x1
    47cc:	75078793          	addi	a5,a5,1872 # 5f18 <__sf_fake_stdout>
    47d0:	00f41463          	bne	s0,a5,47d8 <__swbuf_r+0xa0>
    47d4:	4480                	lw	s0,8(s1)
    47d6:	b769                	j	4760 <__swbuf_r+0x28>
    47d8:	00001797          	auipc	a5,0x1
    47dc:	70078793          	addi	a5,a5,1792 # 5ed8 <__sf_fake_stderr>
    47e0:	f8f410e3          	bne	s0,a5,4760 <__swbuf_r+0x28>
    47e4:	44c0                	lw	s0,12(s1)
    47e6:	bfad                	j	4760 <__swbuf_r+0x28>
    47e8:	85a2                	mv	a1,s0
    47ea:	8526                	mv	a0,s1
    47ec:	2021                	jal	47f4 <__swsetup_r>
    47ee:	d141                	beqz	a0,476e <__swbuf_r+0x36>
    47f0:	597d                	li	s2,-1
    47f2:	b7d9                	j	47b8 <__swbuf_r+0x80>

000047f4 <__swsetup_r>:
    47f4:	1141                	addi	sp,sp,-16
    47f6:	81018793          	addi	a5,gp,-2032 # 20000080 <_impure_ptr>
    47fa:	c226                	sw	s1,4(sp)
    47fc:	4384                	lw	s1,0(a5)
    47fe:	c422                	sw	s0,8(sp)
    4800:	c04a                	sw	s2,0(sp)
    4802:	c606                	sw	ra,12(sp)
    4804:	892a                	mv	s2,a0
    4806:	842e                	mv	s0,a1
    4808:	c489                	beqz	s1,4812 <__swsetup_r+0x1e>
    480a:	4c9c                	lw	a5,24(s1)
    480c:	e399                	bnez	a5,4812 <__swsetup_r+0x1e>
    480e:	8526                	mv	a0,s1
    4810:	2635                	jal	4b3c <__sinit>
    4812:	00001797          	auipc	a5,0x1
    4816:	6e678793          	addi	a5,a5,1766 # 5ef8 <__sf_fake_stdin>
    481a:	02f41b63          	bne	s0,a5,4850 <__swsetup_r+0x5c>
    481e:	40c0                	lw	s0,4(s1)
    4820:	00c41703          	lh	a4,12(s0)
    4824:	01071793          	slli	a5,a4,0x10
    4828:	83c1                	srli	a5,a5,0x10
    482a:	0087f693          	andi	a3,a5,8
    482e:	eaad                	bnez	a3,48a0 <__swsetup_r+0xac>
    4830:	0107f693          	andi	a3,a5,16
    4834:	ee95                	bnez	a3,4870 <__swsetup_r+0x7c>
    4836:	47a5                	li	a5,9
    4838:	00f92023          	sw	a5,0(s2)
    483c:	04076713          	ori	a4,a4,64
    4840:	a45a                	sh	a4,12(s0)
    4842:	557d                	li	a0,-1
    4844:	40b2                	lw	ra,12(sp)
    4846:	4422                	lw	s0,8(sp)
    4848:	4492                	lw	s1,4(sp)
    484a:	4902                	lw	s2,0(sp)
    484c:	0141                	addi	sp,sp,16
    484e:	8082                	ret
    4850:	00001797          	auipc	a5,0x1
    4854:	6c878793          	addi	a5,a5,1736 # 5f18 <__sf_fake_stdout>
    4858:	00f41463          	bne	s0,a5,4860 <__swsetup_r+0x6c>
    485c:	4480                	lw	s0,8(s1)
    485e:	b7c9                	j	4820 <__swsetup_r+0x2c>
    4860:	00001797          	auipc	a5,0x1
    4864:	67878793          	addi	a5,a5,1656 # 5ed8 <__sf_fake_stderr>
    4868:	faf41ce3          	bne	s0,a5,4820 <__swsetup_r+0x2c>
    486c:	44c0                	lw	s0,12(s1)
    486e:	bf4d                	j	4820 <__swsetup_r+0x2c>
    4870:	8b91                	andi	a5,a5,4
    4872:	c39d                	beqz	a5,4898 <__swsetup_r+0xa4>
    4874:	584c                	lw	a1,52(s0)
    4876:	c989                	beqz	a1,4888 <__swsetup_r+0x94>
    4878:	04440793          	addi	a5,s0,68
    487c:	00f58463          	beq	a1,a5,4884 <__swsetup_r+0x90>
    4880:	854a                	mv	a0,s2
    4882:	2b29                	jal	4d9c <_free_r>
    4884:	02042a23          	sw	zero,52(s0)
    4888:	245e                	lhu	a5,12(s0)
    488a:	00042223          	sw	zero,4(s0)
    488e:	fdb7f793          	andi	a5,a5,-37
    4892:	a45e                	sh	a5,12(s0)
    4894:	481c                	lw	a5,16(s0)
    4896:	c01c                	sw	a5,0(s0)
    4898:	245e                	lhu	a5,12(s0)
    489a:	0087e793          	ori	a5,a5,8
    489e:	a45e                	sh	a5,12(s0)
    48a0:	481c                	lw	a5,16(s0)
    48a2:	eb99                	bnez	a5,48b8 <__swsetup_r+0xc4>
    48a4:	245e                	lhu	a5,12(s0)
    48a6:	20000713          	li	a4,512
    48aa:	2807f793          	andi	a5,a5,640
    48ae:	00e78563          	beq	a5,a4,48b8 <__swsetup_r+0xc4>
    48b2:	85a2                	mv	a1,s0
    48b4:	854a                	mv	a0,s2
    48b6:	2991                	jal	4d0a <__smakebuf_r>
    48b8:	245e                	lhu	a5,12(s0)
    48ba:	0017f713          	andi	a4,a5,1
    48be:	c31d                	beqz	a4,48e4 <__swsetup_r+0xf0>
    48c0:	485c                	lw	a5,20(s0)
    48c2:	00042423          	sw	zero,8(s0)
    48c6:	40f007b3          	neg	a5,a5
    48ca:	cc1c                	sw	a5,24(s0)
    48cc:	481c                	lw	a5,16(s0)
    48ce:	4501                	li	a0,0
    48d0:	fbb5                	bnez	a5,4844 <__swsetup_r+0x50>
    48d2:	00c41783          	lh	a5,12(s0)
    48d6:	0807f713          	andi	a4,a5,128
    48da:	d72d                	beqz	a4,4844 <__swsetup_r+0x50>
    48dc:	0407e793          	ori	a5,a5,64
    48e0:	a45e                	sh	a5,12(s0)
    48e2:	b785                	j	4842 <__swsetup_r+0x4e>
    48e4:	8b89                	andi	a5,a5,2
    48e6:	4701                	li	a4,0
    48e8:	e391                	bnez	a5,48ec <__swsetup_r+0xf8>
    48ea:	4858                	lw	a4,20(s0)
    48ec:	c418                	sw	a4,8(s0)
    48ee:	bff9                	j	48cc <__swsetup_r+0xd8>

000048f0 <__sflush_r>:
    48f0:	25de                	lhu	a5,12(a1)
    48f2:	1101                	addi	sp,sp,-32
    48f4:	cc22                	sw	s0,24(sp)
    48f6:	ca26                	sw	s1,20(sp)
    48f8:	ce06                	sw	ra,28(sp)
    48fa:	c84a                	sw	s2,16(sp)
    48fc:	c64e                	sw	s3,12(sp)
    48fe:	0087f713          	andi	a4,a5,8
    4902:	84aa                	mv	s1,a0
    4904:	842e                	mv	s0,a1
    4906:	eb79                	bnez	a4,49dc <__sflush_r+0xec>
    4908:	41d8                	lw	a4,4(a1)
    490a:	00e04d63          	bgtz	a4,4924 <__sflush_r+0x34>
    490e:	41b8                	lw	a4,64(a1)
    4910:	00e04a63          	bgtz	a4,4924 <__sflush_r+0x34>
    4914:	4501                	li	a0,0
    4916:	40f2                	lw	ra,28(sp)
    4918:	4462                	lw	s0,24(sp)
    491a:	44d2                	lw	s1,20(sp)
    491c:	4942                	lw	s2,16(sp)
    491e:	49b2                	lw	s3,12(sp)
    4920:	6105                	addi	sp,sp,32
    4922:	8082                	ret
    4924:	5458                	lw	a4,44(s0)
    4926:	d77d                	beqz	a4,4914 <__sflush_r+0x24>
    4928:	0004a903          	lw	s2,0(s1)
    492c:	01379693          	slli	a3,a5,0x13
    4930:	0004a023          	sw	zero,0(s1)
    4934:	0606db63          	bgez	a3,49aa <__sflush_r+0xba>
    4938:	4870                	lw	a2,84(s0)
    493a:	245e                	lhu	a5,12(s0)
    493c:	8b91                	andi	a5,a5,4
    493e:	c799                	beqz	a5,494c <__sflush_r+0x5c>
    4940:	405c                	lw	a5,4(s0)
    4942:	8e1d                	sub	a2,a2,a5
    4944:	585c                	lw	a5,52(s0)
    4946:	c399                	beqz	a5,494c <__sflush_r+0x5c>
    4948:	403c                	lw	a5,64(s0)
    494a:	8e1d                	sub	a2,a2,a5
    494c:	545c                	lw	a5,44(s0)
    494e:	500c                	lw	a1,32(s0)
    4950:	4681                	li	a3,0
    4952:	8526                	mv	a0,s1
    4954:	9782                	jalr	a5
    4956:	57fd                	li	a5,-1
    4958:	245a                	lhu	a4,12(s0)
    495a:	00f51d63          	bne	a0,a5,4974 <__sflush_r+0x84>
    495e:	4094                	lw	a3,0(s1)
    4960:	47f5                	li	a5,29
    4962:	06d7e863          	bltu	a5,a3,49d2 <__sflush_r+0xe2>
    4966:	204007b7          	lui	a5,0x20400
    496a:	0785                	addi	a5,a5,1
    496c:	00d7d7b3          	srl	a5,a5,a3
    4970:	8b85                	andi	a5,a5,1
    4972:	c3a5                	beqz	a5,49d2 <__sflush_r+0xe2>
    4974:	481c                	lw	a5,16(s0)
    4976:	00042223          	sw	zero,4(s0)
    497a:	c01c                	sw	a5,0(s0)
    497c:	01371793          	slli	a5,a4,0x13
    4980:	0007d863          	bgez	a5,4990 <__sflush_r+0xa0>
    4984:	57fd                	li	a5,-1
    4986:	00f51463          	bne	a0,a5,498e <__sflush_r+0x9e>
    498a:	409c                	lw	a5,0(s1)
    498c:	e391                	bnez	a5,4990 <__sflush_r+0xa0>
    498e:	c868                	sw	a0,84(s0)
    4990:	584c                	lw	a1,52(s0)
    4992:	0124a023          	sw	s2,0(s1)
    4996:	ddbd                	beqz	a1,4914 <__sflush_r+0x24>
    4998:	04440793          	addi	a5,s0,68
    499c:	00f58463          	beq	a1,a5,49a4 <__sflush_r+0xb4>
    49a0:	8526                	mv	a0,s1
    49a2:	2eed                	jal	4d9c <_free_r>
    49a4:	02042a23          	sw	zero,52(s0)
    49a8:	b7b5                	j	4914 <__sflush_r+0x24>
    49aa:	500c                	lw	a1,32(s0)
    49ac:	4601                	li	a2,0
    49ae:	4685                	li	a3,1
    49b0:	8526                	mv	a0,s1
    49b2:	9702                	jalr	a4
    49b4:	57fd                	li	a5,-1
    49b6:	862a                	mv	a2,a0
    49b8:	f8f511e3          	bne	a0,a5,493a <__sflush_r+0x4a>
    49bc:	409c                	lw	a5,0(s1)
    49be:	dfb5                	beqz	a5,493a <__sflush_r+0x4a>
    49c0:	4775                	li	a4,29
    49c2:	00e78563          	beq	a5,a4,49cc <__sflush_r+0xdc>
    49c6:	4759                	li	a4,22
    49c8:	04e79363          	bne	a5,a4,4a0e <__sflush_r+0x11e>
    49cc:	0124a023          	sw	s2,0(s1)
    49d0:	b791                	j	4914 <__sflush_r+0x24>
    49d2:	04076713          	ori	a4,a4,64
    49d6:	a45a                	sh	a4,12(s0)
    49d8:	557d                	li	a0,-1
    49da:	bf35                	j	4916 <__sflush_r+0x26>
    49dc:	0105a983          	lw	s3,16(a1)
    49e0:	f2098ae3          	beqz	s3,4914 <__sflush_r+0x24>
    49e4:	0005a903          	lw	s2,0(a1)
    49e8:	8b8d                	andi	a5,a5,3
    49ea:	0135a023          	sw	s3,0(a1)
    49ee:	41390933          	sub	s2,s2,s3
    49f2:	4701                	li	a4,0
    49f4:	e391                	bnez	a5,49f8 <__sflush_r+0x108>
    49f6:	49d8                	lw	a4,20(a1)
    49f8:	c418                	sw	a4,8(s0)
    49fa:	f1205de3          	blez	s2,4914 <__sflush_r+0x24>
    49fe:	541c                	lw	a5,40(s0)
    4a00:	500c                	lw	a1,32(s0)
    4a02:	86ca                	mv	a3,s2
    4a04:	864e                	mv	a2,s3
    4a06:	8526                	mv	a0,s1
    4a08:	9782                	jalr	a5
    4a0a:	00a04763          	bgtz	a0,4a18 <__sflush_r+0x128>
    4a0e:	245e                	lhu	a5,12(s0)
    4a10:	0407e793          	ori	a5,a5,64
    4a14:	a45e                	sh	a5,12(s0)
    4a16:	b7c9                	j	49d8 <__sflush_r+0xe8>
    4a18:	99aa                	add	s3,s3,a0
    4a1a:	40a90933          	sub	s2,s2,a0
    4a1e:	bff1                	j	49fa <__sflush_r+0x10a>

00004a20 <_fflush_r>:
    4a20:	499c                	lw	a5,16(a1)
    4a22:	c3a5                	beqz	a5,4a82 <_fflush_r+0x62>
    4a24:	1101                	addi	sp,sp,-32
    4a26:	cc22                	sw	s0,24(sp)
    4a28:	ce06                	sw	ra,28(sp)
    4a2a:	842a                	mv	s0,a0
    4a2c:	c511                	beqz	a0,4a38 <_fflush_r+0x18>
    4a2e:	4d1c                	lw	a5,24(a0)
    4a30:	e781                	bnez	a5,4a38 <_fflush_r+0x18>
    4a32:	c62e                	sw	a1,12(sp)
    4a34:	2221                	jal	4b3c <__sinit>
    4a36:	45b2                	lw	a1,12(sp)
    4a38:	00001797          	auipc	a5,0x1
    4a3c:	4c078793          	addi	a5,a5,1216 # 5ef8 <__sf_fake_stdin>
    4a40:	00f59c63          	bne	a1,a5,4a58 <_fflush_r+0x38>
    4a44:	404c                	lw	a1,4(s0)
    4a46:	00c59783          	lh	a5,12(a1)
    4a4a:	c79d                	beqz	a5,4a78 <_fflush_r+0x58>
    4a4c:	8522                	mv	a0,s0
    4a4e:	4462                	lw	s0,24(sp)
    4a50:	40f2                	lw	ra,28(sp)
    4a52:	6105                	addi	sp,sp,32
    4a54:	e9dff06f          	j	48f0 <__sflush_r>
    4a58:	00001797          	auipc	a5,0x1
    4a5c:	4c078793          	addi	a5,a5,1216 # 5f18 <__sf_fake_stdout>
    4a60:	00f59463          	bne	a1,a5,4a68 <_fflush_r+0x48>
    4a64:	440c                	lw	a1,8(s0)
    4a66:	b7c5                	j	4a46 <_fflush_r+0x26>
    4a68:	00001797          	auipc	a5,0x1
    4a6c:	47078793          	addi	a5,a5,1136 # 5ed8 <__sf_fake_stderr>
    4a70:	fcf59be3          	bne	a1,a5,4a46 <_fflush_r+0x26>
    4a74:	444c                	lw	a1,12(s0)
    4a76:	bfc1                	j	4a46 <_fflush_r+0x26>
    4a78:	40f2                	lw	ra,28(sp)
    4a7a:	4462                	lw	s0,24(sp)
    4a7c:	4501                	li	a0,0
    4a7e:	6105                	addi	sp,sp,32
    4a80:	8082                	ret
    4a82:	4501                	li	a0,0
    4a84:	8082                	ret

00004a86 <std>:
    4a86:	1141                	addi	sp,sp,-16
    4a88:	c422                	sw	s0,8(sp)
    4a8a:	c606                	sw	ra,12(sp)
    4a8c:	842a                	mv	s0,a0
    4a8e:	a54e                	sh	a1,12(a0)
    4a90:	a572                	sh	a2,14(a0)
    4a92:	00052023          	sw	zero,0(a0)
    4a96:	00052223          	sw	zero,4(a0)
    4a9a:	00052423          	sw	zero,8(a0)
    4a9e:	06052223          	sw	zero,100(a0)
    4aa2:	00052823          	sw	zero,16(a0)
    4aa6:	00052a23          	sw	zero,20(a0)
    4aaa:	00052c23          	sw	zero,24(a0)
    4aae:	4621                	li	a2,8
    4ab0:	4581                	li	a1,0
    4ab2:	05c50513          	addi	a0,a0,92
    4ab6:	eeafb0ef          	jal	ra,1a0 <memset>
    4aba:	00001797          	auipc	a5,0x1
    4abe:	b3878793          	addi	a5,a5,-1224 # 55f2 <__sread>
    4ac2:	d05c                	sw	a5,36(s0)
    4ac4:	00001797          	auipc	a5,0x1
    4ac8:	b5a78793          	addi	a5,a5,-1190 # 561e <__swrite>
    4acc:	d41c                	sw	a5,40(s0)
    4ace:	00001797          	auipc	a5,0x1
    4ad2:	b9878793          	addi	a5,a5,-1128 # 5666 <__sseek>
    4ad6:	d45c                	sw	a5,44(s0)
    4ad8:	00001797          	auipc	a5,0x1
    4adc:	bbe78793          	addi	a5,a5,-1090 # 5696 <__sclose>
    4ae0:	d000                	sw	s0,32(s0)
    4ae2:	d81c                	sw	a5,48(s0)
    4ae4:	40b2                	lw	ra,12(sp)
    4ae6:	4422                	lw	s0,8(sp)
    4ae8:	0141                	addi	sp,sp,16
    4aea:	8082                	ret

00004aec <_cleanup_r>:
    4aec:	00000597          	auipc	a1,0x0
    4af0:	f3458593          	addi	a1,a1,-204 # 4a20 <_fflush_r>
    4af4:	aa91                	j	4c48 <_fwalk_reent>

00004af6 <__sfmoreglue>:
    4af6:	1141                	addi	sp,sp,-16
    4af8:	c226                	sw	s1,4(sp)
    4afa:	06800613          	li	a2,104
    4afe:	fff58493          	addi	s1,a1,-1
    4b02:	02c484b3          	mul	s1,s1,a2
    4b06:	c04a                	sw	s2,0(sp)
    4b08:	892e                	mv	s2,a1
    4b0a:	c422                	sw	s0,8(sp)
    4b0c:	c606                	sw	ra,12(sp)
    4b0e:	07448593          	addi	a1,s1,116
    4b12:	2e0d                	jal	4e44 <_malloc_r>
    4b14:	842a                	mv	s0,a0
    4b16:	cd01                	beqz	a0,4b2e <__sfmoreglue+0x38>
    4b18:	00052023          	sw	zero,0(a0)
    4b1c:	01252223          	sw	s2,4(a0)
    4b20:	0531                	addi	a0,a0,12
    4b22:	c408                	sw	a0,8(s0)
    4b24:	06848613          	addi	a2,s1,104
    4b28:	4581                	li	a1,0
    4b2a:	e76fb0ef          	jal	ra,1a0 <memset>
    4b2e:	8522                	mv	a0,s0
    4b30:	40b2                	lw	ra,12(sp)
    4b32:	4422                	lw	s0,8(sp)
    4b34:	4492                	lw	s1,4(sp)
    4b36:	4902                	lw	s2,0(sp)
    4b38:	0141                	addi	sp,sp,16
    4b3a:	8082                	ret

00004b3c <__sinit>:
    4b3c:	4d1c                	lw	a5,24(a0)
    4b3e:	e7a5                	bnez	a5,4ba6 <__sinit+0x6a>
    4b40:	1141                	addi	sp,sp,-16
    4b42:	c606                	sw	ra,12(sp)
    4b44:	c422                	sw	s0,8(sp)
    4b46:	00000797          	auipc	a5,0x0
    4b4a:	fa678793          	addi	a5,a5,-90 # 4aec <_cleanup_r>
    4b4e:	d51c                	sw	a5,40(a0)
    4b50:	87c18793          	addi	a5,gp,-1924 # 200000ec <_global_impure_ptr>
    4b54:	439c                	lw	a5,0(a5)
    4b56:	04052423          	sw	zero,72(a0)
    4b5a:	04052623          	sw	zero,76(a0)
    4b5e:	04052823          	sw	zero,80(a0)
    4b62:	00f51463          	bne	a0,a5,4b6a <__sinit+0x2e>
    4b66:	4785                	li	a5,1
    4b68:	cd1c                	sw	a5,24(a0)
    4b6a:	842a                	mv	s0,a0
    4b6c:	2835                	jal	4ba8 <__sfp>
    4b6e:	c048                	sw	a0,4(s0)
    4b70:	8522                	mv	a0,s0
    4b72:	281d                	jal	4ba8 <__sfp>
    4b74:	c408                	sw	a0,8(s0)
    4b76:	8522                	mv	a0,s0
    4b78:	2805                	jal	4ba8 <__sfp>
    4b7a:	c448                	sw	a0,12(s0)
    4b7c:	4048                	lw	a0,4(s0)
    4b7e:	4601                	li	a2,0
    4b80:	4591                	li	a1,4
    4b82:	f05ff0ef          	jal	ra,4a86 <std>
    4b86:	4408                	lw	a0,8(s0)
    4b88:	4605                	li	a2,1
    4b8a:	45a5                	li	a1,9
    4b8c:	efbff0ef          	jal	ra,4a86 <std>
    4b90:	4448                	lw	a0,12(s0)
    4b92:	4609                	li	a2,2
    4b94:	45c9                	li	a1,18
    4b96:	ef1ff0ef          	jal	ra,4a86 <std>
    4b9a:	4785                	li	a5,1
    4b9c:	cc1c                	sw	a5,24(s0)
    4b9e:	40b2                	lw	ra,12(sp)
    4ba0:	4422                	lw	s0,8(sp)
    4ba2:	0141                	addi	sp,sp,16
    4ba4:	8082                	ret
    4ba6:	8082                	ret

00004ba8 <__sfp>:
    4ba8:	1141                	addi	sp,sp,-16
    4baa:	87c18793          	addi	a5,gp,-1924 # 200000ec <_global_impure_ptr>
    4bae:	c226                	sw	s1,4(sp)
    4bb0:	4384                	lw	s1,0(a5)
    4bb2:	c04a                	sw	s2,0(sp)
    4bb4:	c606                	sw	ra,12(sp)
    4bb6:	4c9c                	lw	a5,24(s1)
    4bb8:	c422                	sw	s0,8(sp)
    4bba:	892a                	mv	s2,a0
    4bbc:	e781                	bnez	a5,4bc4 <__sfp+0x1c>
    4bbe:	8526                	mv	a0,s1
    4bc0:	f7dff0ef          	jal	ra,4b3c <__sinit>
    4bc4:	04848493          	addi	s1,s1,72
    4bc8:	4480                	lw	s0,8(s1)
    4bca:	40dc                	lw	a5,4(s1)
    4bcc:	17fd                	addi	a5,a5,-1
    4bce:	0007d663          	bgez	a5,4bda <__sfp+0x32>
    4bd2:	409c                	lw	a5,0(s1)
    4bd4:	cfb9                	beqz	a5,4c32 <__sfp+0x8a>
    4bd6:	4084                	lw	s1,0(s1)
    4bd8:	bfc5                	j	4bc8 <__sfp+0x20>
    4bda:	00c41703          	lh	a4,12(s0)
    4bde:	e739                	bnez	a4,4c2c <__sfp+0x84>
    4be0:	77c1                	lui	a5,0xffff0
    4be2:	0785                	addi	a5,a5,1
    4be4:	06042223          	sw	zero,100(s0)
    4be8:	00042023          	sw	zero,0(s0)
    4bec:	00042223          	sw	zero,4(s0)
    4bf0:	00042423          	sw	zero,8(s0)
    4bf4:	c45c                	sw	a5,12(s0)
    4bf6:	00042823          	sw	zero,16(s0)
    4bfa:	00042a23          	sw	zero,20(s0)
    4bfe:	00042c23          	sw	zero,24(s0)
    4c02:	4621                	li	a2,8
    4c04:	4581                	li	a1,0
    4c06:	05c40513          	addi	a0,s0,92
    4c0a:	d96fb0ef          	jal	ra,1a0 <memset>
    4c0e:	02042a23          	sw	zero,52(s0)
    4c12:	02042c23          	sw	zero,56(s0)
    4c16:	04042423          	sw	zero,72(s0)
    4c1a:	04042623          	sw	zero,76(s0)
    4c1e:	8522                	mv	a0,s0
    4c20:	40b2                	lw	ra,12(sp)
    4c22:	4422                	lw	s0,8(sp)
    4c24:	4492                	lw	s1,4(sp)
    4c26:	4902                	lw	s2,0(sp)
    4c28:	0141                	addi	sp,sp,16
    4c2a:	8082                	ret
    4c2c:	06840413          	addi	s0,s0,104
    4c30:	bf71                	j	4bcc <__sfp+0x24>
    4c32:	4591                	li	a1,4
    4c34:	854a                	mv	a0,s2
    4c36:	ec1ff0ef          	jal	ra,4af6 <__sfmoreglue>
    4c3a:	c088                	sw	a0,0(s1)
    4c3c:	fd49                	bnez	a0,4bd6 <__sfp+0x2e>
    4c3e:	47b1                	li	a5,12
    4c40:	00f92023          	sw	a5,0(s2)
    4c44:	4401                	li	s0,0
    4c46:	bfe1                	j	4c1e <__sfp+0x76>

00004c48 <_fwalk_reent>:
    4c48:	7179                	addi	sp,sp,-48
    4c4a:	d422                	sw	s0,40(sp)
    4c4c:	d04a                	sw	s2,32(sp)
    4c4e:	cc52                	sw	s4,24(sp)
    4c50:	ca56                	sw	s5,20(sp)
    4c52:	c85a                	sw	s6,16(sp)
    4c54:	c65e                	sw	s7,12(sp)
    4c56:	d606                	sw	ra,44(sp)
    4c58:	d226                	sw	s1,36(sp)
    4c5a:	ce4e                	sw	s3,28(sp)
    4c5c:	8a2a                	mv	s4,a0
    4c5e:	8aae                	mv	s5,a1
    4c60:	04850413          	addi	s0,a0,72
    4c64:	4901                	li	s2,0
    4c66:	4b05                	li	s6,1
    4c68:	5bfd                	li	s7,-1
    4c6a:	ec09                	bnez	s0,4c84 <_fwalk_reent+0x3c>
    4c6c:	50b2                	lw	ra,44(sp)
    4c6e:	5422                	lw	s0,40(sp)
    4c70:	854a                	mv	a0,s2
    4c72:	5492                	lw	s1,36(sp)
    4c74:	5902                	lw	s2,32(sp)
    4c76:	49f2                	lw	s3,28(sp)
    4c78:	4a62                	lw	s4,24(sp)
    4c7a:	4ad2                	lw	s5,20(sp)
    4c7c:	4b42                	lw	s6,16(sp)
    4c7e:	4bb2                	lw	s7,12(sp)
    4c80:	6145                	addi	sp,sp,48
    4c82:	8082                	ret
    4c84:	4404                	lw	s1,8(s0)
    4c86:	00442983          	lw	s3,4(s0)
    4c8a:	19fd                	addi	s3,s3,-1
    4c8c:	0009d463          	bgez	s3,4c94 <_fwalk_reent+0x4c>
    4c90:	4000                	lw	s0,0(s0)
    4c92:	bfe1                	j	4c6a <_fwalk_reent+0x22>
    4c94:	24de                	lhu	a5,12(s1)
    4c96:	00fb7b63          	bgeu	s6,a5,4cac <_fwalk_reent+0x64>
    4c9a:	00e49783          	lh	a5,14(s1)
    4c9e:	01778763          	beq	a5,s7,4cac <_fwalk_reent+0x64>
    4ca2:	85a6                	mv	a1,s1
    4ca4:	8552                	mv	a0,s4
    4ca6:	9a82                	jalr	s5
    4ca8:	00a96933          	or	s2,s2,a0
    4cac:	06848493          	addi	s1,s1,104
    4cb0:	bfe9                	j	4c8a <_fwalk_reent+0x42>

00004cb2 <__swhatbuf_r>:
    4cb2:	7119                	addi	sp,sp,-128
    4cb4:	daa6                	sw	s1,116(sp)
    4cb6:	84ae                	mv	s1,a1
    4cb8:	00e59583          	lh	a1,14(a1)
    4cbc:	dca2                	sw	s0,120(sp)
    4cbe:	de86                	sw	ra,124(sp)
    4cc0:	8432                	mv	s0,a2
    4cc2:	0005db63          	bgez	a1,4cd8 <__swhatbuf_r+0x26>
    4cc6:	24de                	lhu	a5,12(s1)
    4cc8:	0006a023          	sw	zero,0(a3)
    4ccc:	0807f793          	andi	a5,a5,128
    4cd0:	e785                	bnez	a5,4cf8 <__swhatbuf_r+0x46>
    4cd2:	40000793          	li	a5,1024
    4cd6:	a01d                	j	4cfc <__swhatbuf_r+0x4a>
    4cd8:	0830                	addi	a2,sp,24
    4cda:	c636                	sw	a3,12(sp)
    4cdc:	227000ef          	jal	ra,5702 <_fstat_r>
    4ce0:	46b2                	lw	a3,12(sp)
    4ce2:	fe0542e3          	bltz	a0,4cc6 <__swhatbuf_r+0x14>
    4ce6:	4772                	lw	a4,28(sp)
    4ce8:	67bd                	lui	a5,0xf
    4cea:	8ff9                	and	a5,a5,a4
    4cec:	7779                	lui	a4,0xffffe
    4cee:	97ba                	add	a5,a5,a4
    4cf0:	0017b793          	seqz	a5,a5
    4cf4:	c29c                	sw	a5,0(a3)
    4cf6:	bff1                	j	4cd2 <__swhatbuf_r+0x20>
    4cf8:	04000793          	li	a5,64
    4cfc:	c01c                	sw	a5,0(s0)
    4cfe:	50f6                	lw	ra,124(sp)
    4d00:	5466                	lw	s0,120(sp)
    4d02:	54d6                	lw	s1,116(sp)
    4d04:	4501                	li	a0,0
    4d06:	6109                	addi	sp,sp,128
    4d08:	8082                	ret

00004d0a <__smakebuf_r>:
    4d0a:	25de                	lhu	a5,12(a1)
    4d0c:	1101                	addi	sp,sp,-32
    4d0e:	cc22                	sw	s0,24(sp)
    4d10:	ce06                	sw	ra,28(sp)
    4d12:	ca26                	sw	s1,20(sp)
    4d14:	c84a                	sw	s2,16(sp)
    4d16:	8b89                	andi	a5,a5,2
    4d18:	842e                	mv	s0,a1
    4d1a:	cf89                	beqz	a5,4d34 <__smakebuf_r+0x2a>
    4d1c:	04740793          	addi	a5,s0,71
    4d20:	c01c                	sw	a5,0(s0)
    4d22:	c81c                	sw	a5,16(s0)
    4d24:	4785                	li	a5,1
    4d26:	c85c                	sw	a5,20(s0)
    4d28:	40f2                	lw	ra,28(sp)
    4d2a:	4462                	lw	s0,24(sp)
    4d2c:	44d2                	lw	s1,20(sp)
    4d2e:	4942                	lw	s2,16(sp)
    4d30:	6105                	addi	sp,sp,32
    4d32:	8082                	ret
    4d34:	0074                	addi	a3,sp,12
    4d36:	0030                	addi	a2,sp,8
    4d38:	84aa                	mv	s1,a0
    4d3a:	f79ff0ef          	jal	ra,4cb2 <__swhatbuf_r>
    4d3e:	45a2                	lw	a1,8(sp)
    4d40:	892a                	mv	s2,a0
    4d42:	8526                	mv	a0,s1
    4d44:	2201                	jal	4e44 <_malloc_r>
    4d46:	e919                	bnez	a0,4d5c <__smakebuf_r+0x52>
    4d48:	00c41783          	lh	a5,12(s0)
    4d4c:	2007f713          	andi	a4,a5,512
    4d50:	ff61                	bnez	a4,4d28 <__smakebuf_r+0x1e>
    4d52:	9bf1                	andi	a5,a5,-4
    4d54:	0027e793          	ori	a5,a5,2
    4d58:	a45e                	sh	a5,12(s0)
    4d5a:	b7c9                	j	4d1c <__smakebuf_r+0x12>
    4d5c:	00000797          	auipc	a5,0x0
    4d60:	d9078793          	addi	a5,a5,-624 # 4aec <_cleanup_r>
    4d64:	d49c                	sw	a5,40(s1)
    4d66:	245e                	lhu	a5,12(s0)
    4d68:	c008                	sw	a0,0(s0)
    4d6a:	c808                	sw	a0,16(s0)
    4d6c:	0807e793          	ori	a5,a5,128
    4d70:	a45e                	sh	a5,12(s0)
    4d72:	47a2                	lw	a5,8(sp)
    4d74:	c85c                	sw	a5,20(s0)
    4d76:	47b2                	lw	a5,12(sp)
    4d78:	cf81                	beqz	a5,4d90 <__smakebuf_r+0x86>
    4d7a:	00e41583          	lh	a1,14(s0)
    4d7e:	8526                	mv	a0,s1
    4d80:	1b5000ef          	jal	ra,5734 <_isatty_r>
    4d84:	c511                	beqz	a0,4d90 <__smakebuf_r+0x86>
    4d86:	245e                	lhu	a5,12(s0)
    4d88:	9bf1                	andi	a5,a5,-4
    4d8a:	0017e793          	ori	a5,a5,1
    4d8e:	a45e                	sh	a5,12(s0)
    4d90:	245e                	lhu	a5,12(s0)
    4d92:	00f96933          	or	s2,s2,a5
    4d96:	01241623          	sh	s2,12(s0)
    4d9a:	b779                	j	4d28 <__smakebuf_r+0x1e>

00004d9c <_free_r>:
    4d9c:	c1dd                	beqz	a1,4e42 <_free_r+0xa6>
    4d9e:	ffc5a783          	lw	a5,-4(a1)
    4da2:	1141                	addi	sp,sp,-16
    4da4:	c422                	sw	s0,8(sp)
    4da6:	c606                	sw	ra,12(sp)
    4da8:	c226                	sw	s1,4(sp)
    4daa:	ffc58413          	addi	s0,a1,-4
    4dae:	0007d363          	bgez	a5,4db4 <_free_r+0x18>
    4db2:	943e                	add	s0,s0,a5
    4db4:	84aa                	mv	s1,a0
    4db6:	1e3000ef          	jal	ra,5798 <__malloc_lock>
    4dba:	8ac18793          	addi	a5,gp,-1876 # 2000011c <__malloc_free_list>
    4dbe:	439c                	lw	a5,0(a5)
    4dc0:	ef81                	bnez	a5,4dd8 <_free_r+0x3c>
    4dc2:	00042223          	sw	zero,4(s0)
    4dc6:	8a81a623          	sw	s0,-1876(gp) # 2000011c <__malloc_free_list>
    4dca:	4422                	lw	s0,8(sp)
    4dcc:	40b2                	lw	ra,12(sp)
    4dce:	8526                	mv	a0,s1
    4dd0:	4492                	lw	s1,4(sp)
    4dd2:	0141                	addi	sp,sp,16
    4dd4:	1c70006f          	j	579a <__malloc_unlock>
    4dd8:	00f47e63          	bgeu	s0,a5,4df4 <_free_r+0x58>
    4ddc:	4014                	lw	a3,0(s0)
    4dde:	00d40733          	add	a4,s0,a3
    4de2:	00e79663          	bne	a5,a4,4dee <_free_r+0x52>
    4de6:	4398                	lw	a4,0(a5)
    4de8:	43dc                	lw	a5,4(a5)
    4dea:	9736                	add	a4,a4,a3
    4dec:	c018                	sw	a4,0(s0)
    4dee:	c05c                	sw	a5,4(s0)
    4df0:	bfd9                	j	4dc6 <_free_r+0x2a>
    4df2:	87ba                	mv	a5,a4
    4df4:	43d8                	lw	a4,4(a5)
    4df6:	c319                	beqz	a4,4dfc <_free_r+0x60>
    4df8:	fee47de3          	bgeu	s0,a4,4df2 <_free_r+0x56>
    4dfc:	4394                	lw	a3,0(a5)
    4dfe:	00d78633          	add	a2,a5,a3
    4e02:	00861f63          	bne	a2,s0,4e20 <_free_r+0x84>
    4e06:	4010                	lw	a2,0(s0)
    4e08:	96b2                	add	a3,a3,a2
    4e0a:	c394                	sw	a3,0(a5)
    4e0c:	00d78633          	add	a2,a5,a3
    4e10:	fac71de3          	bne	a4,a2,4dca <_free_r+0x2e>
    4e14:	4310                	lw	a2,0(a4)
    4e16:	4358                	lw	a4,4(a4)
    4e18:	96b2                	add	a3,a3,a2
    4e1a:	c394                	sw	a3,0(a5)
    4e1c:	c3d8                	sw	a4,4(a5)
    4e1e:	b775                	j	4dca <_free_r+0x2e>
    4e20:	00c47563          	bgeu	s0,a2,4e2a <_free_r+0x8e>
    4e24:	47b1                	li	a5,12
    4e26:	c09c                	sw	a5,0(s1)
    4e28:	b74d                	j	4dca <_free_r+0x2e>
    4e2a:	4010                	lw	a2,0(s0)
    4e2c:	00c406b3          	add	a3,s0,a2
    4e30:	00d71663          	bne	a4,a3,4e3c <_free_r+0xa0>
    4e34:	4314                	lw	a3,0(a4)
    4e36:	4358                	lw	a4,4(a4)
    4e38:	96b2                	add	a3,a3,a2
    4e3a:	c014                	sw	a3,0(s0)
    4e3c:	c058                	sw	a4,4(s0)
    4e3e:	c3c0                	sw	s0,4(a5)
    4e40:	b769                	j	4dca <_free_r+0x2e>
    4e42:	8082                	ret

00004e44 <_malloc_r>:
    4e44:	1101                	addi	sp,sp,-32
    4e46:	ca26                	sw	s1,20(sp)
    4e48:	00358493          	addi	s1,a1,3
    4e4c:	98f1                	andi	s1,s1,-4
    4e4e:	ce06                	sw	ra,28(sp)
    4e50:	cc22                	sw	s0,24(sp)
    4e52:	c84a                	sw	s2,16(sp)
    4e54:	c64e                	sw	s3,12(sp)
    4e56:	04a1                	addi	s1,s1,8
    4e58:	47b1                	li	a5,12
    4e5a:	04f4f363          	bgeu	s1,a5,4ea0 <_malloc_r+0x5c>
    4e5e:	44b1                	li	s1,12
    4e60:	04b4e263          	bltu	s1,a1,4ea4 <_malloc_r+0x60>
    4e64:	892a                	mv	s2,a0
    4e66:	133000ef          	jal	ra,5798 <__malloc_lock>
    4e6a:	8ac18793          	addi	a5,gp,-1876 # 2000011c <__malloc_free_list>
    4e6e:	4398                	lw	a4,0(a5)
    4e70:	843a                	mv	s0,a4
    4e72:	e039                	bnez	s0,4eb8 <_malloc_r+0x74>
    4e74:	8b018793          	addi	a5,gp,-1872 # 20000120 <__malloc_sbrk_start>
    4e78:	439c                	lw	a5,0(a5)
    4e7a:	e791                	bnez	a5,4e86 <_malloc_r+0x42>
    4e7c:	4581                	li	a1,0
    4e7e:	854a                	mv	a0,s2
    4e80:	2781                	jal	55c0 <_sbrk_r>
    4e82:	8aa1a823          	sw	a0,-1872(gp) # 20000120 <__malloc_sbrk_start>
    4e86:	85a6                	mv	a1,s1
    4e88:	854a                	mv	a0,s2
    4e8a:	2f1d                	jal	55c0 <_sbrk_r>
    4e8c:	59fd                	li	s3,-1
    4e8e:	07351963          	bne	a0,s3,4f00 <_malloc_r+0xbc>
    4e92:	47b1                	li	a5,12
    4e94:	00f92023          	sw	a5,0(s2)
    4e98:	854a                	mv	a0,s2
    4e9a:	101000ef          	jal	ra,579a <__malloc_unlock>
    4e9e:	a029                	j	4ea8 <_malloc_r+0x64>
    4ea0:	fc04d0e3          	bgez	s1,4e60 <_malloc_r+0x1c>
    4ea4:	47b1                	li	a5,12
    4ea6:	c11c                	sw	a5,0(a0)
    4ea8:	4501                	li	a0,0
    4eaa:	40f2                	lw	ra,28(sp)
    4eac:	4462                	lw	s0,24(sp)
    4eae:	44d2                	lw	s1,20(sp)
    4eb0:	4942                	lw	s2,16(sp)
    4eb2:	49b2                	lw	s3,12(sp)
    4eb4:	6105                	addi	sp,sp,32
    4eb6:	8082                	ret
    4eb8:	401c                	lw	a5,0(s0)
    4eba:	8f85                	sub	a5,a5,s1
    4ebc:	0207cf63          	bltz	a5,4efa <_malloc_r+0xb6>
    4ec0:	46ad                	li	a3,11
    4ec2:	00f6f663          	bgeu	a3,a5,4ece <_malloc_r+0x8a>
    4ec6:	c01c                	sw	a5,0(s0)
    4ec8:	943e                	add	s0,s0,a5
    4eca:	c004                	sw	s1,0(s0)
    4ecc:	a031                	j	4ed8 <_malloc_r+0x94>
    4ece:	405c                	lw	a5,4(s0)
    4ed0:	02871363          	bne	a4,s0,4ef6 <_malloc_r+0xb2>
    4ed4:	8af1a623          	sw	a5,-1876(gp) # 2000011c <__malloc_free_list>
    4ed8:	854a                	mv	a0,s2
    4eda:	0c1000ef          	jal	ra,579a <__malloc_unlock>
    4ede:	00b40513          	addi	a0,s0,11
    4ee2:	00440793          	addi	a5,s0,4
    4ee6:	9961                	andi	a0,a0,-8
    4ee8:	40f50733          	sub	a4,a0,a5
    4eec:	df5d                	beqz	a4,4eaa <_malloc_r+0x66>
    4eee:	943a                	add	s0,s0,a4
    4ef0:	8f89                	sub	a5,a5,a0
    4ef2:	c01c                	sw	a5,0(s0)
    4ef4:	bf5d                	j	4eaa <_malloc_r+0x66>
    4ef6:	c35c                	sw	a5,4(a4)
    4ef8:	b7c5                	j	4ed8 <_malloc_r+0x94>
    4efa:	8722                	mv	a4,s0
    4efc:	4040                	lw	s0,4(s0)
    4efe:	bf95                	j	4e72 <_malloc_r+0x2e>
    4f00:	00350413          	addi	s0,a0,3
    4f04:	9871                	andi	s0,s0,-4
    4f06:	fc8502e3          	beq	a0,s0,4eca <_malloc_r+0x86>
    4f0a:	40a405b3          	sub	a1,s0,a0
    4f0e:	854a                	mv	a0,s2
    4f10:	2d45                	jal	55c0 <_sbrk_r>
    4f12:	fb351ce3          	bne	a0,s3,4eca <_malloc_r+0x86>
    4f16:	bfb5                	j	4e92 <_malloc_r+0x4e>

00004f18 <__sfputc_r>:
    4f18:	461c                	lw	a5,8(a2)
    4f1a:	17fd                	addi	a5,a5,-1
    4f1c:	c61c                	sw	a5,8(a2)
    4f1e:	0007da63          	bgez	a5,4f32 <__sfputc_r+0x1a>
    4f22:	4e18                	lw	a4,24(a2)
    4f24:	00e7c563          	blt	a5,a4,4f2e <__sfputc_r+0x16>
    4f28:	47a9                	li	a5,10
    4f2a:	00f59463          	bne	a1,a5,4f32 <__sfputc_r+0x1a>
    4f2e:	80bff06f          	j	4738 <__swbuf_r>
    4f32:	421c                	lw	a5,0(a2)
    4f34:	852e                	mv	a0,a1
    4f36:	00178713          	addi	a4,a5,1
    4f3a:	c218                	sw	a4,0(a2)
    4f3c:	a38c                	sb	a1,0(a5)
    4f3e:	8082                	ret

00004f40 <__sfputs_r>:
    4f40:	1101                	addi	sp,sp,-32
    4f42:	cc22                	sw	s0,24(sp)
    4f44:	ca26                	sw	s1,20(sp)
    4f46:	c84a                	sw	s2,16(sp)
    4f48:	c64e                	sw	s3,12(sp)
    4f4a:	c452                	sw	s4,8(sp)
    4f4c:	ce06                	sw	ra,28(sp)
    4f4e:	892a                	mv	s2,a0
    4f50:	89ae                	mv	s3,a1
    4f52:	8432                	mv	s0,a2
    4f54:	00d604b3          	add	s1,a2,a3
    4f58:	5a7d                	li	s4,-1
    4f5a:	00941463          	bne	s0,s1,4f62 <__sfputs_r+0x22>
    4f5e:	4501                	li	a0,0
    4f60:	a809                	j	4f72 <__sfputs_r+0x32>
    4f62:	200c                	lbu	a1,0(s0)
    4f64:	864e                	mv	a2,s3
    4f66:	854a                	mv	a0,s2
    4f68:	fb1ff0ef          	jal	ra,4f18 <__sfputc_r>
    4f6c:	0405                	addi	s0,s0,1
    4f6e:	ff4516e3          	bne	a0,s4,4f5a <__sfputs_r+0x1a>
    4f72:	40f2                	lw	ra,28(sp)
    4f74:	4462                	lw	s0,24(sp)
    4f76:	44d2                	lw	s1,20(sp)
    4f78:	4942                	lw	s2,16(sp)
    4f7a:	49b2                	lw	s3,12(sp)
    4f7c:	4a22                	lw	s4,8(sp)
    4f7e:	6105                	addi	sp,sp,32
    4f80:	8082                	ret

00004f82 <_vfiprintf_r>:
    4f82:	7135                	addi	sp,sp,-160
    4f84:	cd22                	sw	s0,152(sp)
    4f86:	cb26                	sw	s1,148(sp)
    4f88:	c94a                	sw	s2,144(sp)
    4f8a:	c74e                	sw	s3,140(sp)
    4f8c:	cf06                	sw	ra,156(sp)
    4f8e:	c552                	sw	s4,136(sp)
    4f90:	c356                	sw	s5,132(sp)
    4f92:	c15a                	sw	s6,128(sp)
    4f94:	dede                	sw	s7,124(sp)
    4f96:	dce2                	sw	s8,120(sp)
    4f98:	dae6                	sw	s9,116(sp)
    4f9a:	89aa                	mv	s3,a0
    4f9c:	84ae                	mv	s1,a1
    4f9e:	8932                	mv	s2,a2
    4fa0:	8436                	mv	s0,a3
    4fa2:	c509                	beqz	a0,4fac <_vfiprintf_r+0x2a>
    4fa4:	4d1c                	lw	a5,24(a0)
    4fa6:	e399                	bnez	a5,4fac <_vfiprintf_r+0x2a>
    4fa8:	b95ff0ef          	jal	ra,4b3c <__sinit>
    4fac:	00001797          	auipc	a5,0x1
    4fb0:	f4c78793          	addi	a5,a5,-180 # 5ef8 <__sf_fake_stdin>
    4fb4:	0cf49963          	bne	s1,a5,5086 <_vfiprintf_r+0x104>
    4fb8:	0049a483          	lw	s1,4(s3)
    4fbc:	24de                	lhu	a5,12(s1)
    4fbe:	8ba1                	andi	a5,a5,8
    4fc0:	c7ed                	beqz	a5,50aa <_vfiprintf_r+0x128>
    4fc2:	489c                	lw	a5,16(s1)
    4fc4:	c3fd                	beqz	a5,50aa <_vfiprintf_r+0x128>
    4fc6:	02000793          	li	a5,32
    4fca:	02f104a3          	sb	a5,41(sp)
    4fce:	03000793          	li	a5,48
    4fd2:	d202                	sw	zero,36(sp)
    4fd4:	02f10523          	sb	a5,42(sp)
    4fd8:	c622                	sw	s0,12(sp)
    4fda:	02500b93          	li	s7,37
    4fde:	00001a97          	auipc	s5,0x1
    4fe2:	f5aa8a93          	addi	s5,s5,-166 # 5f38 <__sf_fake_stdout+0x20>
    4fe6:	4c05                	li	s8,1
    4fe8:	4b29                	li	s6,10
    4fea:	844a                	mv	s0,s2
    4fec:	201c                	lbu	a5,0(s0)
    4fee:	c399                	beqz	a5,4ff4 <_vfiprintf_r+0x72>
    4ff0:	0f779063          	bne	a5,s7,50d0 <_vfiprintf_r+0x14e>
    4ff4:	41240cb3          	sub	s9,s0,s2
    4ff8:	000c8e63          	beqz	s9,5014 <_vfiprintf_r+0x92>
    4ffc:	86e6                	mv	a3,s9
    4ffe:	864a                	mv	a2,s2
    5000:	85a6                	mv	a1,s1
    5002:	854e                	mv	a0,s3
    5004:	f3dff0ef          	jal	ra,4f40 <__sfputs_r>
    5008:	57fd                	li	a5,-1
    500a:	1ef50263          	beq	a0,a5,51ee <_vfiprintf_r+0x26c>
    500e:	5692                	lw	a3,36(sp)
    5010:	96e6                	add	a3,a3,s9
    5012:	d236                	sw	a3,36(sp)
    5014:	201c                	lbu	a5,0(s0)
    5016:	1c078c63          	beqz	a5,51ee <_vfiprintf_r+0x26c>
    501a:	57fd                	li	a5,-1
    501c:	00140913          	addi	s2,s0,1
    5020:	c802                	sw	zero,16(sp)
    5022:	ce02                	sw	zero,28(sp)
    5024:	ca3e                	sw	a5,20(sp)
    5026:	cc02                	sw	zero,24(sp)
    5028:	040109a3          	sb	zero,83(sp)
    502c:	d482                	sw	zero,104(sp)
    502e:	00094583          	lbu	a1,0(s2)
    5032:	4615                	li	a2,5
    5034:	8556                	mv	a0,s5
    5036:	d18ff0ef          	jal	ra,454e <memchr>
    503a:	00190413          	addi	s0,s2,1
    503e:	47c2                	lw	a5,16(sp)
    5040:	e951                	bnez	a0,50d4 <_vfiprintf_r+0x152>
    5042:	0107f713          	andi	a4,a5,16
    5046:	c709                	beqz	a4,5050 <_vfiprintf_r+0xce>
    5048:	02000713          	li	a4,32
    504c:	04e109a3          	sb	a4,83(sp)
    5050:	0087f713          	andi	a4,a5,8
    5054:	c709                	beqz	a4,505e <_vfiprintf_r+0xdc>
    5056:	02b00713          	li	a4,43
    505a:	04e109a3          	sb	a4,83(sp)
    505e:	00094683          	lbu	a3,0(s2)
    5062:	02a00713          	li	a4,42
    5066:	06e68f63          	beq	a3,a4,50e4 <_vfiprintf_r+0x162>
    506a:	47f2                	lw	a5,28(sp)
    506c:	844a                	mv	s0,s2
    506e:	4681                	li	a3,0
    5070:	4625                	li	a2,9
    5072:	2018                	lbu	a4,0(s0)
    5074:	00140593          	addi	a1,s0,1
    5078:	fd070713          	addi	a4,a4,-48 # ffffdfd0 <_eusrstack+0xdfff8fd0>
    507c:	0ae67763          	bgeu	a2,a4,512a <_vfiprintf_r+0x1a8>
    5080:	cab5                	beqz	a3,50f4 <_vfiprintf_r+0x172>
    5082:	ce3e                	sw	a5,28(sp)
    5084:	a885                	j	50f4 <_vfiprintf_r+0x172>
    5086:	00001797          	auipc	a5,0x1
    508a:	e9278793          	addi	a5,a5,-366 # 5f18 <__sf_fake_stdout>
    508e:	00f49563          	bne	s1,a5,5098 <_vfiprintf_r+0x116>
    5092:	0089a483          	lw	s1,8(s3)
    5096:	b71d                	j	4fbc <_vfiprintf_r+0x3a>
    5098:	00001797          	auipc	a5,0x1
    509c:	e4078793          	addi	a5,a5,-448 # 5ed8 <__sf_fake_stderr>
    50a0:	f0f49ee3          	bne	s1,a5,4fbc <_vfiprintf_r+0x3a>
    50a4:	00c9a483          	lw	s1,12(s3)
    50a8:	bf11                	j	4fbc <_vfiprintf_r+0x3a>
    50aa:	85a6                	mv	a1,s1
    50ac:	854e                	mv	a0,s3
    50ae:	f46ff0ef          	jal	ra,47f4 <__swsetup_r>
    50b2:	d911                	beqz	a0,4fc6 <_vfiprintf_r+0x44>
    50b4:	557d                	li	a0,-1
    50b6:	40fa                	lw	ra,156(sp)
    50b8:	446a                	lw	s0,152(sp)
    50ba:	44da                	lw	s1,148(sp)
    50bc:	494a                	lw	s2,144(sp)
    50be:	49ba                	lw	s3,140(sp)
    50c0:	4a2a                	lw	s4,136(sp)
    50c2:	4a9a                	lw	s5,132(sp)
    50c4:	4b0a                	lw	s6,128(sp)
    50c6:	5bf6                	lw	s7,124(sp)
    50c8:	5c66                	lw	s8,120(sp)
    50ca:	5cd6                	lw	s9,116(sp)
    50cc:	610d                	addi	sp,sp,160
    50ce:	8082                	ret
    50d0:	0405                	addi	s0,s0,1
    50d2:	bf29                	j	4fec <_vfiprintf_r+0x6a>
    50d4:	41550533          	sub	a0,a0,s5
    50d8:	00ac1533          	sll	a0,s8,a0
    50dc:	8fc9                	or	a5,a5,a0
    50de:	c83e                	sw	a5,16(sp)
    50e0:	8922                	mv	s2,s0
    50e2:	b7b1                	j	502e <_vfiprintf_r+0xac>
    50e4:	4732                	lw	a4,12(sp)
    50e6:	00470693          	addi	a3,a4,4
    50ea:	4318                	lw	a4,0(a4)
    50ec:	c636                	sw	a3,12(sp)
    50ee:	02074763          	bltz	a4,511c <_vfiprintf_r+0x19a>
    50f2:	ce3a                	sw	a4,28(sp)
    50f4:	2018                	lbu	a4,0(s0)
    50f6:	02e00793          	li	a5,46
    50fa:	04f71d63          	bne	a4,a5,5154 <_vfiprintf_r+0x1d2>
    50fe:	3018                	lbu	a4,1(s0)
    5100:	02a00793          	li	a5,42
    5104:	02f71b63          	bne	a4,a5,513a <_vfiprintf_r+0x1b8>
    5108:	47b2                	lw	a5,12(sp)
    510a:	0409                	addi	s0,s0,2
    510c:	00478713          	addi	a4,a5,4
    5110:	439c                	lw	a5,0(a5)
    5112:	c63a                	sw	a4,12(sp)
    5114:	0207c163          	bltz	a5,5136 <_vfiprintf_r+0x1b4>
    5118:	ca3e                	sw	a5,20(sp)
    511a:	a82d                	j	5154 <_vfiprintf_r+0x1d2>
    511c:	40e00733          	neg	a4,a4
    5120:	0027e793          	ori	a5,a5,2
    5124:	ce3a                	sw	a4,28(sp)
    5126:	c83e                	sw	a5,16(sp)
    5128:	b7f1                	j	50f4 <_vfiprintf_r+0x172>
    512a:	036787b3          	mul	a5,a5,s6
    512e:	4685                	li	a3,1
    5130:	842e                	mv	s0,a1
    5132:	97ba                	add	a5,a5,a4
    5134:	bf3d                	j	5072 <_vfiprintf_r+0xf0>
    5136:	57fd                	li	a5,-1
    5138:	b7c5                	j	5118 <_vfiprintf_r+0x196>
    513a:	0405                	addi	s0,s0,1
    513c:	ca02                	sw	zero,20(sp)
    513e:	4681                	li	a3,0
    5140:	4781                	li	a5,0
    5142:	4625                	li	a2,9
    5144:	2018                	lbu	a4,0(s0)
    5146:	00140593          	addi	a1,s0,1
    514a:	fd070713          	addi	a4,a4,-48
    514e:	06e67663          	bgeu	a2,a4,51ba <_vfiprintf_r+0x238>
    5152:	f2f9                	bnez	a3,5118 <_vfiprintf_r+0x196>
    5154:	200c                	lbu	a1,0(s0)
    5156:	460d                	li	a2,3
    5158:	00001517          	auipc	a0,0x1
    515c:	de850513          	addi	a0,a0,-536 # 5f40 <__sf_fake_stdout+0x28>
    5160:	beeff0ef          	jal	ra,454e <memchr>
    5164:	cd11                	beqz	a0,5180 <_vfiprintf_r+0x1fe>
    5166:	00001797          	auipc	a5,0x1
    516a:	dda78793          	addi	a5,a5,-550 # 5f40 <__sf_fake_stdout+0x28>
    516e:	8d1d                	sub	a0,a0,a5
    5170:	04000793          	li	a5,64
    5174:	00a797b3          	sll	a5,a5,a0
    5178:	4542                	lw	a0,16(sp)
    517a:	0405                	addi	s0,s0,1
    517c:	8d5d                	or	a0,a0,a5
    517e:	c82a                	sw	a0,16(sp)
    5180:	200c                	lbu	a1,0(s0)
    5182:	4619                	li	a2,6
    5184:	00001517          	auipc	a0,0x1
    5188:	dc050513          	addi	a0,a0,-576 # 5f44 <__sf_fake_stdout+0x2c>
    518c:	00140913          	addi	s2,s0,1
    5190:	02b10423          	sb	a1,40(sp)
    5194:	bbaff0ef          	jal	ra,454e <memchr>
    5198:	c135                	beqz	a0,51fc <_vfiprintf_r+0x27a>
    519a:	ffffb797          	auipc	a5,0xffffb
    519e:	e6678793          	addi	a5,a5,-410 # 0 <_sinit>
    51a2:	e795                	bnez	a5,51ce <_vfiprintf_r+0x24c>
    51a4:	4742                	lw	a4,16(sp)
    51a6:	47b2                	lw	a5,12(sp)
    51a8:	10077713          	andi	a4,a4,256
    51ac:	cf09                	beqz	a4,51c6 <_vfiprintf_r+0x244>
    51ae:	0791                	addi	a5,a5,4
    51b0:	c63e                	sw	a5,12(sp)
    51b2:	5792                	lw	a5,36(sp)
    51b4:	97d2                	add	a5,a5,s4
    51b6:	d23e                	sw	a5,36(sp)
    51b8:	bd0d                	j	4fea <_vfiprintf_r+0x68>
    51ba:	036787b3          	mul	a5,a5,s6
    51be:	4685                	li	a3,1
    51c0:	842e                	mv	s0,a1
    51c2:	97ba                	add	a5,a5,a4
    51c4:	b741                	j	5144 <_vfiprintf_r+0x1c2>
    51c6:	079d                	addi	a5,a5,7
    51c8:	9be1                	andi	a5,a5,-8
    51ca:	07a1                	addi	a5,a5,8
    51cc:	b7d5                	j	51b0 <_vfiprintf_r+0x22e>
    51ce:	0078                	addi	a4,sp,12
    51d0:	00000697          	auipc	a3,0x0
    51d4:	d7068693          	addi	a3,a3,-656 # 4f40 <__sfputs_r>
    51d8:	8626                	mv	a2,s1
    51da:	080c                	addi	a1,sp,16
    51dc:	854e                	mv	a0,s3
    51de:	00000097          	auipc	ra,0x0
    51e2:	000000e7          	jalr	zero # 0 <_sinit>
    51e6:	57fd                	li	a5,-1
    51e8:	8a2a                	mv	s4,a0
    51ea:	fcf514e3          	bne	a0,a5,51b2 <_vfiprintf_r+0x230>
    51ee:	24de                	lhu	a5,12(s1)
    51f0:	0407f793          	andi	a5,a5,64
    51f4:	ec0790e3          	bnez	a5,50b4 <_vfiprintf_r+0x132>
    51f8:	5512                	lw	a0,36(sp)
    51fa:	bd75                	j	50b6 <_vfiprintf_r+0x134>
    51fc:	0078                	addi	a4,sp,12
    51fe:	00000697          	auipc	a3,0x0
    5202:	d4268693          	addi	a3,a3,-702 # 4f40 <__sfputs_r>
    5206:	8626                	mv	a2,s1
    5208:	080c                	addi	a1,sp,16
    520a:	854e                	mv	a0,s3
    520c:	2a01                	jal	531c <_printf_i>
    520e:	bfe1                	j	51e6 <_vfiprintf_r+0x264>

00005210 <_printf_common>:
    5210:	7179                	addi	sp,sp,-48
    5212:	ca56                	sw	s5,20(sp)
    5214:	499c                	lw	a5,16(a1)
    5216:	8aba                	mv	s5,a4
    5218:	4598                	lw	a4,8(a1)
    521a:	d422                	sw	s0,40(sp)
    521c:	d226                	sw	s1,36(sp)
    521e:	ce4e                	sw	s3,28(sp)
    5220:	cc52                	sw	s4,24(sp)
    5222:	d606                	sw	ra,44(sp)
    5224:	d04a                	sw	s2,32(sp)
    5226:	c85a                	sw	s6,16(sp)
    5228:	c65e                	sw	s7,12(sp)
    522a:	89aa                	mv	s3,a0
    522c:	842e                	mv	s0,a1
    522e:	84b2                	mv	s1,a2
    5230:	8a36                	mv	s4,a3
    5232:	00e7d363          	bge	a5,a4,5238 <_printf_common+0x28>
    5236:	87ba                	mv	a5,a4
    5238:	c09c                	sw	a5,0(s1)
    523a:	04344703          	lbu	a4,67(s0)
    523e:	c319                	beqz	a4,5244 <_printf_common+0x34>
    5240:	0785                	addi	a5,a5,1
    5242:	c09c                	sw	a5,0(s1)
    5244:	401c                	lw	a5,0(s0)
    5246:	0207f793          	andi	a5,a5,32
    524a:	c781                	beqz	a5,5252 <_printf_common+0x42>
    524c:	409c                	lw	a5,0(s1)
    524e:	0789                	addi	a5,a5,2
    5250:	c09c                	sw	a5,0(s1)
    5252:	00042903          	lw	s2,0(s0)
    5256:	00697913          	andi	s2,s2,6
    525a:	00091a63          	bnez	s2,526e <_printf_common+0x5e>
    525e:	01940b13          	addi	s6,s0,25
    5262:	5bfd                	li	s7,-1
    5264:	445c                	lw	a5,12(s0)
    5266:	4098                	lw	a4,0(s1)
    5268:	8f99                	sub	a5,a5,a4
    526a:	04f94c63          	blt	s2,a5,52c2 <_printf_common+0xb2>
    526e:	401c                	lw	a5,0(s0)
    5270:	04344683          	lbu	a3,67(s0)
    5274:	0207f793          	andi	a5,a5,32
    5278:	00d036b3          	snez	a3,a3
    527c:	eba5                	bnez	a5,52ec <_printf_common+0xdc>
    527e:	04340613          	addi	a2,s0,67
    5282:	85d2                	mv	a1,s4
    5284:	854e                	mv	a0,s3
    5286:	9a82                	jalr	s5
    5288:	57fd                	li	a5,-1
    528a:	04f50363          	beq	a0,a5,52d0 <_printf_common+0xc0>
    528e:	401c                	lw	a5,0(s0)
    5290:	4611                	li	a2,4
    5292:	4098                	lw	a4,0(s1)
    5294:	8b99                	andi	a5,a5,6
    5296:	4454                	lw	a3,12(s0)
    5298:	4481                	li	s1,0
    529a:	00c79763          	bne	a5,a2,52a8 <_printf_common+0x98>
    529e:	40e684b3          	sub	s1,a3,a4
    52a2:	0004d363          	bgez	s1,52a8 <_printf_common+0x98>
    52a6:	4481                	li	s1,0
    52a8:	441c                	lw	a5,8(s0)
    52aa:	4818                	lw	a4,16(s0)
    52ac:	00f75463          	bge	a4,a5,52b4 <_printf_common+0xa4>
    52b0:	8f99                	sub	a5,a5,a4
    52b2:	94be                	add	s1,s1,a5
    52b4:	4901                	li	s2,0
    52b6:	0469                	addi	s0,s0,26
    52b8:	5b7d                	li	s6,-1
    52ba:	05249863          	bne	s1,s2,530a <_printf_common+0xfa>
    52be:	4501                	li	a0,0
    52c0:	a809                	j	52d2 <_printf_common+0xc2>
    52c2:	4685                	li	a3,1
    52c4:	865a                	mv	a2,s6
    52c6:	85d2                	mv	a1,s4
    52c8:	854e                	mv	a0,s3
    52ca:	9a82                	jalr	s5
    52cc:	01751e63          	bne	a0,s7,52e8 <_printf_common+0xd8>
    52d0:	557d                	li	a0,-1
    52d2:	50b2                	lw	ra,44(sp)
    52d4:	5422                	lw	s0,40(sp)
    52d6:	5492                	lw	s1,36(sp)
    52d8:	5902                	lw	s2,32(sp)
    52da:	49f2                	lw	s3,28(sp)
    52dc:	4a62                	lw	s4,24(sp)
    52de:	4ad2                	lw	s5,20(sp)
    52e0:	4b42                	lw	s6,16(sp)
    52e2:	4bb2                	lw	s7,12(sp)
    52e4:	6145                	addi	sp,sp,48
    52e6:	8082                	ret
    52e8:	0905                	addi	s2,s2,1
    52ea:	bfad                	j	5264 <_printf_common+0x54>
    52ec:	00d40733          	add	a4,s0,a3
    52f0:	03000613          	li	a2,48
    52f4:	04c701a3          	sb	a2,67(a4)
    52f8:	04544703          	lbu	a4,69(s0)
    52fc:	00168793          	addi	a5,a3,1
    5300:	97a2                	add	a5,a5,s0
    5302:	0689                	addi	a3,a3,2
    5304:	04e781a3          	sb	a4,67(a5)
    5308:	bf9d                	j	527e <_printf_common+0x6e>
    530a:	4685                	li	a3,1
    530c:	8622                	mv	a2,s0
    530e:	85d2                	mv	a1,s4
    5310:	854e                	mv	a0,s3
    5312:	9a82                	jalr	s5
    5314:	fb650ee3          	beq	a0,s6,52d0 <_printf_common+0xc0>
    5318:	0905                	addi	s2,s2,1
    531a:	b745                	j	52ba <_printf_common+0xaa>

0000531c <_printf_i>:
    531c:	7179                	addi	sp,sp,-48
    531e:	d422                	sw	s0,40(sp)
    5320:	d226                	sw	s1,36(sp)
    5322:	d04a                	sw	s2,32(sp)
    5324:	ce4e                	sw	s3,28(sp)
    5326:	d606                	sw	ra,44(sp)
    5328:	cc52                	sw	s4,24(sp)
    532a:	ca56                	sw	s5,20(sp)
    532c:	c85a                	sw	s6,16(sp)
    532e:	89b6                	mv	s3,a3
    5330:	2d94                	lbu	a3,24(a1)
    5332:	06900793          	li	a5,105
    5336:	8932                	mv	s2,a2
    5338:	84aa                	mv	s1,a0
    533a:	842e                	mv	s0,a1
    533c:	04358613          	addi	a2,a1,67
    5340:	02f68d63          	beq	a3,a5,537a <_printf_i+0x5e>
    5344:	06d7e263          	bltu	a5,a3,53a8 <_printf_i+0x8c>
    5348:	05800793          	li	a5,88
    534c:	18f68763          	beq	a3,a5,54da <_printf_i+0x1be>
    5350:	00d7ed63          	bltu	a5,a3,536a <_printf_i+0x4e>
    5354:	20068f63          	beqz	a3,5572 <_printf_i+0x256>
    5358:	04300793          	li	a5,67
    535c:	0af68f63          	beq	a3,a5,541a <_printf_i+0xfe>
    5360:	04240a93          	addi	s5,s0,66
    5364:	04d40123          	sb	a3,66(s0)
    5368:	a0d1                	j	542c <_printf_i+0x110>
    536a:	06300793          	li	a5,99
    536e:	0af68663          	beq	a3,a5,541a <_printf_i+0xfe>
    5372:	06400793          	li	a5,100
    5376:	fef695e3          	bne	a3,a5,5360 <_printf_i+0x44>
    537a:	401c                	lw	a5,0(s0)
    537c:	4308                	lw	a0,0(a4)
    537e:	0807f693          	andi	a3,a5,128
    5382:	00450593          	addi	a1,a0,4
    5386:	c6cd                	beqz	a3,5430 <_printf_i+0x114>
    5388:	411c                	lw	a5,0(a0)
    538a:	c30c                	sw	a1,0(a4)
    538c:	0007d863          	bgez	a5,539c <_printf_i+0x80>
    5390:	02d00713          	li	a4,45
    5394:	40f007b3          	neg	a5,a5
    5398:	04e401a3          	sb	a4,67(s0)
    539c:	00001697          	auipc	a3,0x1
    53a0:	bb068693          	addi	a3,a3,-1104 # 5f4c <__sf_fake_stdout+0x34>
    53a4:	4729                	li	a4,10
    53a6:	a86d                	j	5460 <_printf_i+0x144>
    53a8:	07000793          	li	a5,112
    53ac:	16f68363          	beq	a3,a5,5512 <_printf_i+0x1f6>
    53b0:	02d7e563          	bltu	a5,a3,53da <_printf_i+0xbe>
    53b4:	06e00793          	li	a5,110
    53b8:	18f68a63          	beq	a3,a5,554c <_printf_i+0x230>
    53bc:	06f00793          	li	a5,111
    53c0:	faf690e3          	bne	a3,a5,5360 <_printf_i+0x44>
    53c4:	400c                	lw	a1,0(s0)
    53c6:	431c                	lw	a5,0(a4)
    53c8:	0805f813          	andi	a6,a1,128
    53cc:	00478513          	addi	a0,a5,4
    53d0:	06080863          	beqz	a6,5440 <_printf_i+0x124>
    53d4:	c308                	sw	a0,0(a4)
    53d6:	439c                	lw	a5,0(a5)
    53d8:	a88d                	j	544a <_printf_i+0x12e>
    53da:	07500793          	li	a5,117
    53de:	fef683e3          	beq	a3,a5,53c4 <_printf_i+0xa8>
    53e2:	07800793          	li	a5,120
    53e6:	12f68a63          	beq	a3,a5,551a <_printf_i+0x1fe>
    53ea:	07300793          	li	a5,115
    53ee:	f6f699e3          	bne	a3,a5,5360 <_printf_i+0x44>
    53f2:	431c                	lw	a5,0(a4)
    53f4:	41d0                	lw	a2,4(a1)
    53f6:	4581                	li	a1,0
    53f8:	00478693          	addi	a3,a5,4
    53fc:	c314                	sw	a3,0(a4)
    53fe:	0007aa83          	lw	s5,0(a5)
    5402:	8556                	mv	a0,s5
    5404:	94aff0ef          	jal	ra,454e <memchr>
    5408:	c501                	beqz	a0,5410 <_printf_i+0xf4>
    540a:	41550533          	sub	a0,a0,s5
    540e:	c048                	sw	a0,4(s0)
    5410:	405c                	lw	a5,4(s0)
    5412:	c81c                	sw	a5,16(s0)
    5414:	040401a3          	sb	zero,67(s0)
    5418:	a861                	j	54b0 <_printf_i+0x194>
    541a:	431c                	lw	a5,0(a4)
    541c:	04240a93          	addi	s5,s0,66
    5420:	00478693          	addi	a3,a5,4
    5424:	439c                	lw	a5,0(a5)
    5426:	c314                	sw	a3,0(a4)
    5428:	04f40123          	sb	a5,66(s0)
    542c:	4785                	li	a5,1
    542e:	b7d5                	j	5412 <_printf_i+0xf6>
    5430:	0407f693          	andi	a3,a5,64
    5434:	411c                	lw	a5,0(a0)
    5436:	c30c                	sw	a1,0(a4)
    5438:	dab1                	beqz	a3,538c <_printf_i+0x70>
    543a:	07c2                	slli	a5,a5,0x10
    543c:	87c1                	srai	a5,a5,0x10
    543e:	b7b9                	j	538c <_printf_i+0x70>
    5440:	0405f593          	andi	a1,a1,64
    5444:	c308                	sw	a0,0(a4)
    5446:	d9c1                	beqz	a1,53d6 <_printf_i+0xba>
    5448:	239e                	lhu	a5,0(a5)
    544a:	06f00713          	li	a4,111
    544e:	0ee68763          	beq	a3,a4,553c <_printf_i+0x220>
    5452:	00001697          	auipc	a3,0x1
    5456:	afa68693          	addi	a3,a3,-1286 # 5f4c <__sf_fake_stdout+0x34>
    545a:	4729                	li	a4,10
    545c:	040401a3          	sb	zero,67(s0)
    5460:	404c                	lw	a1,4(s0)
    5462:	c40c                	sw	a1,8(s0)
    5464:	0005c563          	bltz	a1,546e <_printf_i+0x152>
    5468:	4008                	lw	a0,0(s0)
    546a:	996d                	andi	a0,a0,-5
    546c:	c008                	sw	a0,0(s0)
    546e:	e399                	bnez	a5,5474 <_printf_i+0x158>
    5470:	8ab2                	mv	s5,a2
    5472:	cd89                	beqz	a1,548c <_printf_i+0x170>
    5474:	8ab2                	mv	s5,a2
    5476:	02e7f5b3          	remu	a1,a5,a4
    547a:	1afd                	addi	s5,s5,-1
    547c:	95b6                	add	a1,a1,a3
    547e:	218c                	lbu	a1,0(a1)
    5480:	00ba8023          	sb	a1,0(s5)
    5484:	02e7d5b3          	divu	a1,a5,a4
    5488:	0ce7f063          	bgeu	a5,a4,5548 <_printf_i+0x22c>
    548c:	47a1                	li	a5,8
    548e:	00f71e63          	bne	a4,a5,54aa <_printf_i+0x18e>
    5492:	401c                	lw	a5,0(s0)
    5494:	8b85                	andi	a5,a5,1
    5496:	cb91                	beqz	a5,54aa <_printf_i+0x18e>
    5498:	4058                	lw	a4,4(s0)
    549a:	481c                	lw	a5,16(s0)
    549c:	00e7c763          	blt	a5,a4,54aa <_printf_i+0x18e>
    54a0:	03000793          	li	a5,48
    54a4:	fefa8fa3          	sb	a5,-1(s5)
    54a8:	1afd                	addi	s5,s5,-1
    54aa:	41560633          	sub	a2,a2,s5
    54ae:	c810                	sw	a2,16(s0)
    54b0:	874e                	mv	a4,s3
    54b2:	86ca                	mv	a3,s2
    54b4:	0070                	addi	a2,sp,12
    54b6:	85a2                	mv	a1,s0
    54b8:	8526                	mv	a0,s1
    54ba:	d57ff0ef          	jal	ra,5210 <_printf_common>
    54be:	5a7d                	li	s4,-1
    54c0:	0b451d63          	bne	a0,s4,557a <_printf_i+0x25e>
    54c4:	557d                	li	a0,-1
    54c6:	50b2                	lw	ra,44(sp)
    54c8:	5422                	lw	s0,40(sp)
    54ca:	5492                	lw	s1,36(sp)
    54cc:	5902                	lw	s2,32(sp)
    54ce:	49f2                	lw	s3,28(sp)
    54d0:	4a62                	lw	s4,24(sp)
    54d2:	4ad2                	lw	s5,20(sp)
    54d4:	4b42                	lw	s6,16(sp)
    54d6:	6145                	addi	sp,sp,48
    54d8:	8082                	ret
    54da:	04d582a3          	sb	a3,69(a1)
    54de:	00001697          	auipc	a3,0x1
    54e2:	a6e68693          	addi	a3,a3,-1426 # 5f4c <__sf_fake_stdout+0x34>
    54e6:	400c                	lw	a1,0(s0)
    54e8:	4308                	lw	a0,0(a4)
    54ea:	0805f813          	andi	a6,a1,128
    54ee:	411c                	lw	a5,0(a0)
    54f0:	0511                	addi	a0,a0,4
    54f2:	02080d63          	beqz	a6,552c <_printf_i+0x210>
    54f6:	c308                	sw	a0,0(a4)
    54f8:	0015f713          	andi	a4,a1,1
    54fc:	c701                	beqz	a4,5504 <_printf_i+0x1e8>
    54fe:	0205e593          	ori	a1,a1,32
    5502:	c00c                	sw	a1,0(s0)
    5504:	4741                	li	a4,16
    5506:	fbb9                	bnez	a5,545c <_printf_i+0x140>
    5508:	400c                	lw	a1,0(s0)
    550a:	fdf5f593          	andi	a1,a1,-33
    550e:	c00c                	sw	a1,0(s0)
    5510:	b7b1                	j	545c <_printf_i+0x140>
    5512:	419c                	lw	a5,0(a1)
    5514:	0207e793          	ori	a5,a5,32
    5518:	c19c                	sw	a5,0(a1)
    551a:	07800793          	li	a5,120
    551e:	04f402a3          	sb	a5,69(s0)
    5522:	00001697          	auipc	a3,0x1
    5526:	a3e68693          	addi	a3,a3,-1474 # 5f60 <__sf_fake_stdout+0x48>
    552a:	bf75                	j	54e6 <_printf_i+0x1ca>
    552c:	0405f813          	andi	a6,a1,64
    5530:	c308                	sw	a0,0(a4)
    5532:	fc0803e3          	beqz	a6,54f8 <_printf_i+0x1dc>
    5536:	07c2                	slli	a5,a5,0x10
    5538:	83c1                	srli	a5,a5,0x10
    553a:	bf7d                	j	54f8 <_printf_i+0x1dc>
    553c:	00001697          	auipc	a3,0x1
    5540:	a1068693          	addi	a3,a3,-1520 # 5f4c <__sf_fake_stdout+0x34>
    5544:	4721                	li	a4,8
    5546:	bf19                	j	545c <_printf_i+0x140>
    5548:	87ae                	mv	a5,a1
    554a:	b735                	j	5476 <_printf_i+0x15a>
    554c:	4194                	lw	a3,0(a1)
    554e:	431c                	lw	a5,0(a4)
    5550:	49cc                	lw	a1,20(a1)
    5552:	0806f813          	andi	a6,a3,128
    5556:	00478513          	addi	a0,a5,4
    555a:	00080663          	beqz	a6,5566 <_printf_i+0x24a>
    555e:	c308                	sw	a0,0(a4)
    5560:	439c                	lw	a5,0(a5)
    5562:	c38c                	sw	a1,0(a5)
    5564:	a039                	j	5572 <_printf_i+0x256>
    5566:	c308                	sw	a0,0(a4)
    5568:	0406f693          	andi	a3,a3,64
    556c:	439c                	lw	a5,0(a5)
    556e:	daf5                	beqz	a3,5562 <_printf_i+0x246>
    5570:	a38e                	sh	a1,0(a5)
    5572:	00042823          	sw	zero,16(s0)
    5576:	8ab2                	mv	s5,a2
    5578:	bf25                	j	54b0 <_printf_i+0x194>
    557a:	4814                	lw	a3,16(s0)
    557c:	8656                	mv	a2,s5
    557e:	85ca                	mv	a1,s2
    5580:	8526                	mv	a0,s1
    5582:	9982                	jalr	s3
    5584:	f54500e3          	beq	a0,s4,54c4 <_printf_i+0x1a8>
    5588:	401c                	lw	a5,0(s0)
    558a:	8b89                	andi	a5,a5,2
    558c:	e78d                	bnez	a5,55b6 <_printf_i+0x29a>
    558e:	47b2                	lw	a5,12(sp)
    5590:	4448                	lw	a0,12(s0)
    5592:	f2f55ae3          	bge	a0,a5,54c6 <_printf_i+0x1aa>
    5596:	853e                	mv	a0,a5
    5598:	b73d                	j	54c6 <_printf_i+0x1aa>
    559a:	4685                	li	a3,1
    559c:	8656                	mv	a2,s5
    559e:	85ca                	mv	a1,s2
    55a0:	8526                	mv	a0,s1
    55a2:	9982                	jalr	s3
    55a4:	f36500e3          	beq	a0,s6,54c4 <_printf_i+0x1a8>
    55a8:	0a05                	addi	s4,s4,1
    55aa:	445c                	lw	a5,12(s0)
    55ac:	4732                	lw	a4,12(sp)
    55ae:	8f99                	sub	a5,a5,a4
    55b0:	fefa45e3          	blt	s4,a5,559a <_printf_i+0x27e>
    55b4:	bfe9                	j	558e <_printf_i+0x272>
    55b6:	4a01                	li	s4,0
    55b8:	01940a93          	addi	s5,s0,25
    55bc:	5b7d                	li	s6,-1
    55be:	b7f5                	j	55aa <_printf_i+0x28e>

000055c0 <_sbrk_r>:
    55c0:	1141                	addi	sp,sp,-16
    55c2:	c422                	sw	s0,8(sp)
    55c4:	842a                	mv	s0,a0
    55c6:	852e                	mv	a0,a1
    55c8:	1fffc797          	auipc	a5,0x1fffc
    55cc:	6407ae23          	sw	zero,1628(a5) # 20001c24 <errno>
    55d0:	c606                	sw	ra,12(sp)
    55d2:	f53fe0ef          	jal	ra,4524 <_sbrk>
    55d6:	57fd                	li	a5,-1
    55d8:	00f51963          	bne	a0,a5,55ea <_sbrk_r+0x2a>
    55dc:	1fffc797          	auipc	a5,0x1fffc
    55e0:	64878793          	addi	a5,a5,1608 # 20001c24 <errno>
    55e4:	439c                	lw	a5,0(a5)
    55e6:	c391                	beqz	a5,55ea <_sbrk_r+0x2a>
    55e8:	c01c                	sw	a5,0(s0)
    55ea:	40b2                	lw	ra,12(sp)
    55ec:	4422                	lw	s0,8(sp)
    55ee:	0141                	addi	sp,sp,16
    55f0:	8082                	ret

000055f2 <__sread>:
    55f2:	1141                	addi	sp,sp,-16
    55f4:	c422                	sw	s0,8(sp)
    55f6:	842e                	mv	s0,a1
    55f8:	00e59583          	lh	a1,14(a1)
    55fc:	c606                	sw	ra,12(sp)
    55fe:	2a79                	jal	579c <_read_r>
    5600:	00054963          	bltz	a0,5612 <__sread+0x20>
    5604:	487c                	lw	a5,84(s0)
    5606:	97aa                	add	a5,a5,a0
    5608:	c87c                	sw	a5,84(s0)
    560a:	40b2                	lw	ra,12(sp)
    560c:	4422                	lw	s0,8(sp)
    560e:	0141                	addi	sp,sp,16
    5610:	8082                	ret
    5612:	245e                	lhu	a5,12(s0)
    5614:	777d                	lui	a4,0xfffff
    5616:	177d                	addi	a4,a4,-1
    5618:	8ff9                	and	a5,a5,a4
    561a:	a45e                	sh	a5,12(s0)
    561c:	b7fd                	j	560a <__sread+0x18>

0000561e <__swrite>:
    561e:	25de                	lhu	a5,12(a1)
    5620:	1101                	addi	sp,sp,-32
    5622:	cc22                	sw	s0,24(sp)
    5624:	ca26                	sw	s1,20(sp)
    5626:	c84a                	sw	s2,16(sp)
    5628:	c64e                	sw	s3,12(sp)
    562a:	ce06                	sw	ra,28(sp)
    562c:	1007f793          	andi	a5,a5,256
    5630:	84aa                	mv	s1,a0
    5632:	842e                	mv	s0,a1
    5634:	8932                	mv	s2,a2
    5636:	89b6                	mv	s3,a3
    5638:	c791                	beqz	a5,5644 <__swrite+0x26>
    563a:	00e59583          	lh	a1,14(a1)
    563e:	4689                	li	a3,2
    5640:	4601                	li	a2,0
    5642:	220d                	jal	5764 <_lseek_r>
    5644:	245e                	lhu	a5,12(s0)
    5646:	777d                	lui	a4,0xfffff
    5648:	177d                	addi	a4,a4,-1
    564a:	8ff9                	and	a5,a5,a4
    564c:	a45e                	sh	a5,12(s0)
    564e:	00e41583          	lh	a1,14(s0)
    5652:	4462                	lw	s0,24(sp)
    5654:	40f2                	lw	ra,28(sp)
    5656:	86ce                	mv	a3,s3
    5658:	864a                	mv	a2,s2
    565a:	49b2                	lw	s3,12(sp)
    565c:	4942                	lw	s2,16(sp)
    565e:	8526                	mv	a0,s1
    5660:	44d2                	lw	s1,20(sp)
    5662:	6105                	addi	sp,sp,32
    5664:	a825                	j	569c <_write_r>

00005666 <__sseek>:
    5666:	1141                	addi	sp,sp,-16
    5668:	c422                	sw	s0,8(sp)
    566a:	842e                	mv	s0,a1
    566c:	00e59583          	lh	a1,14(a1)
    5670:	c606                	sw	ra,12(sp)
    5672:	28cd                	jal	5764 <_lseek_r>
    5674:	57fd                	li	a5,-1
    5676:	245a                	lhu	a4,12(s0)
    5678:	00f51a63          	bne	a0,a5,568c <__sseek+0x26>
    567c:	77fd                	lui	a5,0xfffff
    567e:	17fd                	addi	a5,a5,-1
    5680:	8ff9                	and	a5,a5,a4
    5682:	a45e                	sh	a5,12(s0)
    5684:	40b2                	lw	ra,12(sp)
    5686:	4422                	lw	s0,8(sp)
    5688:	0141                	addi	sp,sp,16
    568a:	8082                	ret
    568c:	6785                	lui	a5,0x1
    568e:	8fd9                	or	a5,a5,a4
    5690:	a45e                	sh	a5,12(s0)
    5692:	c868                	sw	a0,84(s0)
    5694:	bfc5                	j	5684 <__sseek+0x1e>

00005696 <__sclose>:
    5696:	00e59583          	lh	a1,14(a1)
    569a:	a825                	j	56d2 <_close_r>

0000569c <_write_r>:
    569c:	1141                	addi	sp,sp,-16
    569e:	c422                	sw	s0,8(sp)
    56a0:	842a                	mv	s0,a0
    56a2:	852e                	mv	a0,a1
    56a4:	85b2                	mv	a1,a2
    56a6:	8636                	mv	a2,a3
    56a8:	1fffc797          	auipc	a5,0x1fffc
    56ac:	5607ae23          	sw	zero,1404(a5) # 20001c24 <errno>
    56b0:	c606                	sw	ra,12(sp)
    56b2:	e35fe0ef          	jal	ra,44e6 <_write>
    56b6:	57fd                	li	a5,-1
    56b8:	00f51963          	bne	a0,a5,56ca <_write_r+0x2e>
    56bc:	1fffc797          	auipc	a5,0x1fffc
    56c0:	56878793          	addi	a5,a5,1384 # 20001c24 <errno>
    56c4:	439c                	lw	a5,0(a5)
    56c6:	c391                	beqz	a5,56ca <_write_r+0x2e>
    56c8:	c01c                	sw	a5,0(s0)
    56ca:	40b2                	lw	ra,12(sp)
    56cc:	4422                	lw	s0,8(sp)
    56ce:	0141                	addi	sp,sp,16
    56d0:	8082                	ret

000056d2 <_close_r>:
    56d2:	1141                	addi	sp,sp,-16
    56d4:	c422                	sw	s0,8(sp)
    56d6:	842a                	mv	s0,a0
    56d8:	852e                	mv	a0,a1
    56da:	1fffc797          	auipc	a5,0x1fffc
    56de:	5407a523          	sw	zero,1354(a5) # 20001c24 <errno>
    56e2:	c606                	sw	ra,12(sp)
    56e4:	20f5                	jal	57d0 <_close>
    56e6:	57fd                	li	a5,-1
    56e8:	00f51963          	bne	a0,a5,56fa <_close_r+0x28>
    56ec:	1fffc797          	auipc	a5,0x1fffc
    56f0:	53878793          	addi	a5,a5,1336 # 20001c24 <errno>
    56f4:	439c                	lw	a5,0(a5)
    56f6:	c391                	beqz	a5,56fa <_close_r+0x28>
    56f8:	c01c                	sw	a5,0(s0)
    56fa:	40b2                	lw	ra,12(sp)
    56fc:	4422                	lw	s0,8(sp)
    56fe:	0141                	addi	sp,sp,16
    5700:	8082                	ret

00005702 <_fstat_r>:
    5702:	1141                	addi	sp,sp,-16
    5704:	c422                	sw	s0,8(sp)
    5706:	842a                	mv	s0,a0
    5708:	852e                	mv	a0,a1
    570a:	85b2                	mv	a1,a2
    570c:	1fffc797          	auipc	a5,0x1fffc
    5710:	5007ac23          	sw	zero,1304(a5) # 20001c24 <errno>
    5714:	c606                	sw	ra,12(sp)
    5716:	20e9                	jal	57e0 <_fstat>
    5718:	57fd                	li	a5,-1
    571a:	00f51963          	bne	a0,a5,572c <_fstat_r+0x2a>
    571e:	1fffc797          	auipc	a5,0x1fffc
    5722:	50678793          	addi	a5,a5,1286 # 20001c24 <errno>
    5726:	439c                	lw	a5,0(a5)
    5728:	c391                	beqz	a5,572c <_fstat_r+0x2a>
    572a:	c01c                	sw	a5,0(s0)
    572c:	40b2                	lw	ra,12(sp)
    572e:	4422                	lw	s0,8(sp)
    5730:	0141                	addi	sp,sp,16
    5732:	8082                	ret

00005734 <_isatty_r>:
    5734:	1141                	addi	sp,sp,-16
    5736:	c422                	sw	s0,8(sp)
    5738:	842a                	mv	s0,a0
    573a:	852e                	mv	a0,a1
    573c:	1fffc797          	auipc	a5,0x1fffc
    5740:	4e07a423          	sw	zero,1256(a5) # 20001c24 <errno>
    5744:	c606                	sw	ra,12(sp)
    5746:	206d                	jal	57f0 <_isatty>
    5748:	57fd                	li	a5,-1
    574a:	00f51963          	bne	a0,a5,575c <_isatty_r+0x28>
    574e:	1fffc797          	auipc	a5,0x1fffc
    5752:	4d678793          	addi	a5,a5,1238 # 20001c24 <errno>
    5756:	439c                	lw	a5,0(a5)
    5758:	c391                	beqz	a5,575c <_isatty_r+0x28>
    575a:	c01c                	sw	a5,0(s0)
    575c:	40b2                	lw	ra,12(sp)
    575e:	4422                	lw	s0,8(sp)
    5760:	0141                	addi	sp,sp,16
    5762:	8082                	ret

00005764 <_lseek_r>:
    5764:	1141                	addi	sp,sp,-16
    5766:	c422                	sw	s0,8(sp)
    5768:	842a                	mv	s0,a0
    576a:	852e                	mv	a0,a1
    576c:	85b2                	mv	a1,a2
    576e:	8636                	mv	a2,a3
    5770:	1fffc797          	auipc	a5,0x1fffc
    5774:	4a07aa23          	sw	zero,1204(a5) # 20001c24 <errno>
    5778:	c606                	sw	ra,12(sp)
    577a:	2059                	jal	5800 <_lseek>
    577c:	57fd                	li	a5,-1
    577e:	00f51963          	bne	a0,a5,5790 <_lseek_r+0x2c>
    5782:	1fffc797          	auipc	a5,0x1fffc
    5786:	4a278793          	addi	a5,a5,1186 # 20001c24 <errno>
    578a:	439c                	lw	a5,0(a5)
    578c:	c391                	beqz	a5,5790 <_lseek_r+0x2c>
    578e:	c01c                	sw	a5,0(s0)
    5790:	40b2                	lw	ra,12(sp)
    5792:	4422                	lw	s0,8(sp)
    5794:	0141                	addi	sp,sp,16
    5796:	8082                	ret

00005798 <__malloc_lock>:
    5798:	8082                	ret

0000579a <__malloc_unlock>:
    579a:	8082                	ret

0000579c <_read_r>:
    579c:	1141                	addi	sp,sp,-16
    579e:	c422                	sw	s0,8(sp)
    57a0:	842a                	mv	s0,a0
    57a2:	852e                	mv	a0,a1
    57a4:	85b2                	mv	a1,a2
    57a6:	8636                	mv	a2,a3
    57a8:	1fffc797          	auipc	a5,0x1fffc
    57ac:	4607ae23          	sw	zero,1148(a5) # 20001c24 <errno>
    57b0:	c606                	sw	ra,12(sp)
    57b2:	28b9                	jal	5810 <_read>
    57b4:	57fd                	li	a5,-1
    57b6:	00f51963          	bne	a0,a5,57c8 <_read_r+0x2c>
    57ba:	1fffc797          	auipc	a5,0x1fffc
    57be:	46a78793          	addi	a5,a5,1130 # 20001c24 <errno>
    57c2:	439c                	lw	a5,0(a5)
    57c4:	c391                	beqz	a5,57c8 <_read_r+0x2c>
    57c6:	c01c                	sw	a5,0(s0)
    57c8:	40b2                	lw	ra,12(sp)
    57ca:	4422                	lw	s0,8(sp)
    57cc:	0141                	addi	sp,sp,16
    57ce:	8082                	ret

000057d0 <_close>:
    57d0:	05800793          	li	a5,88
    57d4:	1fffc717          	auipc	a4,0x1fffc
    57d8:	44f72823          	sw	a5,1104(a4) # 20001c24 <errno>
    57dc:	557d                	li	a0,-1
    57de:	8082                	ret

000057e0 <_fstat>:
    57e0:	05800793          	li	a5,88
    57e4:	1fffc717          	auipc	a4,0x1fffc
    57e8:	44f72023          	sw	a5,1088(a4) # 20001c24 <errno>
    57ec:	557d                	li	a0,-1
    57ee:	8082                	ret

000057f0 <_isatty>:
    57f0:	05800793          	li	a5,88
    57f4:	1fffc717          	auipc	a4,0x1fffc
    57f8:	42f72823          	sw	a5,1072(a4) # 20001c24 <errno>
    57fc:	4501                	li	a0,0
    57fe:	8082                	ret

00005800 <_lseek>:
    5800:	05800793          	li	a5,88
    5804:	1fffc717          	auipc	a4,0x1fffc
    5808:	42f72023          	sw	a5,1056(a4) # 20001c24 <errno>
    580c:	557d                	li	a0,-1
    580e:	8082                	ret

00005810 <_read>:
    5810:	05800793          	li	a5,88
    5814:	1fffc717          	auipc	a4,0x1fffc
    5818:	40f72823          	sw	a5,1040(a4) # 20001c24 <errno>
    581c:	557d                	li	a0,-1
    581e:	8082                	ret
    5820:	5548                	lw	a0,44(a0)
    5822:	5f42                	lw	t5,48(sp)
    5824:	4550                	lw	a2,12(a0)
    5826:	5f31                	li	t5,-20
    5828:	5245                	li	tp,-15
    582a:	3152                	lhu	a2,36(a0)
    582c:	253a                	lhu	a4,10(a0)
    582e:	0d78                	addi	a4,sp,668
    5830:	000a                	c.slli	zero,0x2
    5832:	0000                	unimp
    5834:	5548                	lw	a0,44(a0)
    5836:	5f42                	lw	t5,48(sp)
    5838:	4550                	lw	a2,12(a0)
    583a:	5f31                	li	t5,-20
    583c:	5245                	li	tp,-15
    583e:	3252                	lhu	a2,36(a2)
    5840:	253a                	lhu	a4,10(a0)
    5842:	0d78                	addi	a4,sp,668
    5844:	000a                	c.slli	zero,0x2
    5846:	0000                	unimp
    5848:	5548                	lw	a0,44(a0)
    584a:	5f42                	lw	t5,48(sp)
    584c:	4550                	lw	a2,12(a0)
    584e:	5f31                	li	t5,-20
    5850:	5245                	li	tp,-15
    5852:	3352                	lhu	a2,36(a4)
    5854:	253a                	lhu	a4,10(a0)
    5856:	0d78                	addi	a4,sp,668
    5858:	000a                	c.slli	zero,0x2
    585a:	0000                	unimp
    585c:	7548                	flw	fa0,44(a0)
    585e:	2062                	lhu	s0,6(s0)
    5860:	6f50                	flw	fa2,28(a4)
    5862:	7472                	flw	fs0,60(sp)
    5864:	7825                	lui	a6,0xfffe9
    5866:	4f20                	lw	s0,88(a4)
    5868:	7475                	lui	s0,0xffffd
    586a:	0a0d                	addi	s4,s4,3
    586c:	0000                	unimp
    586e:	0000                	unimp
    5870:	5548                	lw	a0,44(a0)
    5872:	5f42                	lw	t5,48(sp)
    5874:	4550                	lw	a2,12(a0)
    5876:	5f32                	lw	t5,44(sp)
    5878:	5245                	li	tp,-15
    587a:	3152                	lhu	a2,36(a0)
    587c:	253a                	lhu	a4,10(a0)
    587e:	0d78                	addi	a4,sp,668
    5880:	000a                	c.slli	zero,0x2
    5882:	0000                	unimp
    5884:	5548                	lw	a0,44(a0)
    5886:	5f42                	lw	t5,48(sp)
    5888:	4550                	lw	a2,12(a0)
    588a:	5f32                	lw	t5,44(sp)
    588c:	5245                	li	tp,-15
    588e:	3252                	lhu	a2,36(a2)
    5890:	253a                	lhu	a4,10(a0)
    5892:	0d78                	addi	a4,sp,668
    5894:	000a                	c.slli	zero,0x2
    5896:	0000                	unimp
    5898:	5548                	lw	a0,44(a0)
    589a:	5f42                	lw	t5,48(sp)
    589c:	4550                	lw	a2,12(a0)
    589e:	5f32                	lw	t5,44(sp)
    58a0:	5245                	li	tp,-15
    58a2:	3352                	lhu	a2,36(a4)
    58a4:	253a                	lhu	a4,10(a0)
    58a6:	0d78                	addi	a4,sp,668
    58a8:	000a                	c.slli	zero,0x2
    58aa:	0000                	unimp
    58ac:	7548                	flw	fa0,44(a0)
    58ae:	2062                	lhu	s0,6(s0)
    58b0:	6f50                	flw	fa2,28(a4)
    58b2:	7472                	flw	fs0,60(sp)
    58b4:	7825                	lui	a6,0xfffe9
    58b6:	4920                	lw	s0,80(a0)
    58b8:	0d6e                	slli	s10,s10,0x1b
    58ba:	000a                	c.slli	zero,0x2
    58bc:	20746547          	fmsub.s	fa0,fs0,ft7,ft4,unknown
    58c0:	6e49                	lui	t3,0x12
    58c2:	6574                	flw	fa3,76(a0)
    58c4:	6672                	flw	fa2,28(sp)
    58c6:	6361                	lui	t1,0x18
    58c8:	2565                	jal	5f70 <__sf_fake_stdout+0x58>
    58ca:	2078                	lbu	a4,6(s0)
    58cc:	6552                	flw	fa0,20(sp)
    58ce:	4470                	lw	a2,76(s0)
    58d0:	7365                	lui	t1,0xffff9
    58d2:	00203a63          	0x203a63
    58d6:	0000                	unimp
    58d8:	6e45                	lui	t3,0x11
    58da:	6d75                	lui	s10,0x1d
    58dc:	4820                	lw	s0,80(s0)
    58de:	6469                	lui	s0,0x1a
    58e0:	0d3a                	slli	s10,s10,0xe
    58e2:	0000                	unimp
    58e4:	6e45                	lui	t3,0x11
    58e6:	6d75                	lui	s10,0x1d
    58e8:	4820                	lw	s0,80(s0)
    58ea:	6275                	lui	tp,0x1d
    58ec:	0d3a                	slli	s10,s10,0xe
    58ee:	0000                	unimp
    58f0:	6e41                	lui	t3,0x10
    58f2:	6c61                	lui	s8,0x18
    58f4:	7a79                	lui	s4,0xffffe
    58f6:	2065                	jal	599e <_read+0x18e>
    58f8:	44676643          	0x44676643
    58fc:	7365                	lui	t1,0xffff9
    58fe:	00203a63          	0x203a63
    5902:	0000                	unimp
    5904:	20746547          	fmsub.s	fa0,fs0,ft7,ft4,unknown
    5908:	69727453          	0x69727453
    590c:	676e                	flw	fa4,216(sp)
    590e:	6544                	flw	fs1,12(a0)
    5910:	3a346373          	csrrsi	t1,pmpcfg3,8
    5914:	0020                	addi	s0,sp,8
    5916:	0000                	unimp
    5918:	20746547          	fmsub.s	fa0,fs0,ft7,ft4,unknown
    591c:	69727453          	0x69727453
    5920:	676e                	flw	fa4,216(sp)
    5922:	6544                	flw	fs1,12(a0)
    5924:	3a316373          	csrrsi	t1,pmpcfg3,2
    5928:	0020                	addi	s0,sp,8
    592a:	0000                	unimp
    592c:	20746547          	fmsub.s	fa0,fs0,ft7,ft4,unknown
    5930:	69727453          	0x69727453
    5934:	676e                	flw	fa4,216(sp)
    5936:	6544                	flw	fs1,12(a0)
    5938:	3a326373          	csrrsi	t1,pmpcfg3,4
    593c:	0020                	addi	s0,sp,8
    593e:	0000                	unimp
    5940:	20746547          	fmsub.s	fa0,fs0,ft7,ft4,unknown
    5944:	69727453          	0x69727453
    5948:	676e                	flw	fa4,216(sp)
    594a:	6544                	flw	fs1,12(a0)
    594c:	3a336373          	csrrsi	t1,pmpcfg3,6
    5950:	0020                	addi	s0,sp,8
    5952:	0000                	unimp
    5954:	20746547          	fmsub.s	fa0,fs0,ft7,ft4,unknown
    5958:	7548                	flw	fa0,44(a0)
    595a:	2062                	lhu	s0,6(s0)
    595c:	6544                	flw	fs1,12(a0)
    595e:	203a6373          	csrrsi	t1,hideleg,20
    5962:	0000                	unimp
    5964:	6f52                	flw	ft10,20(sp)
    5966:	7548746f          	jal	s0,8d0ba <_data_lma+0x87146>
    596a:	4462                	lw	s0,24(sp)
    596c:	7665                	lui	a2,0xffff9
    596e:	622e                	flw	ft4,200(sp)
    5970:	6f50                	flw	fa2,28(a4)
    5972:	7472                	flw	fs0,60(sp)
    5974:	754e                	flw	fa0,240(sp)
    5976:	3a6d                	jal	5330 <_printf_i+0x14>
    5978:	2520                	lbu	s0,10(a0)
    597a:	3230                	lbu	a2,3(a2)
    597c:	0d78                	addi	a4,sp,668
    597e:	000a                	c.slli	zero,0x2
    5980:	5328                	lw	a0,96(a4)
    5982:	2931                	jal	5d9e <scancodeamiga+0x16>
    5984:	20746547          	fmsub.s	fa0,fs0,ft7,ft4,unknown
    5988:	6544                	flw	fs1,12(a0)
    598a:	4476                	lw	s0,92(sp)
    598c:	7365                	lui	t1,0xffff9
    598e:	0d203a63          	0xd203a63
    5992:	0000                	unimp
    5994:	20746553          	0x20746553
    5998:	6544                	flw	fs1,12(a0)
    599a:	4176                	lw	sp,92(sp)
    599c:	6464                	flw	fs1,76(s0)
    599e:	3a72                	lhu	a2,54(a2)
    59a0:	0d20                	addi	s0,sp,664
    59a2:	0000                	unimp
    59a4:	20746547          	fmsub.s	fa0,fs0,ft7,ft4,unknown
    59a8:	6544                	flw	fs1,12(a0)
    59aa:	4376                	lw	t1,92(sp)
    59ac:	6766                	flw	fa4,88(sp)
    59ae:	6544                	flw	fs1,12(a0)
    59b0:	203a6373          	csrrsi	t1,hideleg,20
    59b4:	000d                	c.nop	3
    59b6:	0000                	unimp
    59b8:	20746553          	0x20746553
    59bc:	56676643          	fmadd.q	fa2,fa4,ft6,fa0,unknown
    59c0:	6c61                	lui	s8,0x18
    59c2:	6575                	lui	a0,0x1d
    59c4:	203a                	lhu	a4,2(s0)
    59c6:	000d                	c.nop	3
    59c8:	6e45                	lui	t3,0x11
    59ca:	6d75                	lui	s10,0x1d
    59cc:	0d3a                	slli	s10,s10,0xe
    59ce:	0000                	unimp
    59d0:	3025                	jal	51f8 <_vfiprintf_r+0x276>
    59d2:	7832                	flw	fa6,44(sp)
    59d4:	0020                	addi	s0,sp,8
    59d6:	0000                	unimp
    59d8:	20746553          	0x20746553
    59dc:	6544                	flw	fs1,12(a0)
    59de:	4176                	lw	sp,92(sp)
    59e0:	6464                	flw	fs1,76(s0)
    59e2:	3a72                	lhu	a2,54(a2)
    59e4:	0020                	addi	s0,sp,8
    59e6:	0000                	unimp
    59e8:	7245                	lui	tp,0xffff1
    59ea:	2872                	lhu	a2,22(s0)
    59ec:	3025                	jal	5214 <_printf_common+0x4>
    59ee:	7832                	flw	fa6,44(sp)
    59f0:	0d29                	addi	s10,s10,10
    59f2:	000a                	c.slli	zero,0x2
    59f4:	000d4b4f          	fnmadd.s	fs6,fs10,ft0,ft0,rmm
    59f8:	20746547          	fmsub.s	fa0,fs0,ft7,ft4,unknown
    59fc:	44676643          	0x44676643
    5a00:	7365                	lui	t1,0xffff9
    5a02:	00203a63          	0x203a63
    5a06:	0000                	unimp
    5a08:	6544                	flw	fs1,12(a0)
    5a0a:	5476                	lw	s0,124(sp)
    5a0c:	7079                	c.lui	zero,0xffffe
    5a0e:	3a65                	jal	53c6 <_printf_i+0xaa>
    5a10:	2520                	lbu	s0,10(a0)
    5a12:	3230                	lbu	a2,3(a2)
    5a14:	0d78                	addi	a4,sp,668
    5a16:	000a                	c.slli	zero,0x2
    5a18:	20746553          	0x20746553
    5a1c:	3a676643          	fmadd.d	fa2,fa4,ft6,ft7,unknown
    5a20:	0020                	addi	s0,sp,8
    5a22:	0000                	unimp
    5a24:	20746547          	fmsub.s	fa0,fs0,ft7,ft4,unknown
    5a28:	6544                	flw	fs1,12(a0)
    5a2a:	4476                	lw	s0,92(sp)
    5a2c:	7365                	lui	t1,0xffff9
    5a2e:	00203a63          	0x203a63
    5a32:	0000                	unimp
    5a34:	5355                	li	t1,-11
    5a36:	2042                	lhu	s0,4(s0)
    5a38:	6f50                	flw	fa2,28(a4)
    5a3a:	7472                	flw	fs0,60(sp)
    5a3c:	4420                	lw	s0,72(s0)
    5a3e:	7665                	lui	a2,0xffff9
    5a40:	4920                	lw	s0,80(a0)
    5a42:	2e6e                	lhu	a1,30(a2)
    5a44:	000d                	c.nop	3
    5a46:	0000                	unimp
    5a48:	6f52                	flw	ft10,20(sp)
    5a4a:	4420746f          	jal	s0,ce8c <_data_lma+0x6f18>
    5a4e:	7665                	lui	a2,0xffff9
    5a50:	6369                	lui	t1,0x1a
    5a52:	2065                	jal	5afa <_read+0x2ea>
    5a54:	7349                	lui	t1,0xffff2
    5a56:	4820                	lw	s0,80(s0)
    5a58:	4449                	li	s0,18
    5a5a:	202e                	lhu	a1,2(s0)
    5a5c:	0000                	unimp
    5a5e:	0000                	unimp
    5a60:	7546                	flw	fa0,112(sp)
    5a62:	7472                	flw	fs0,60(sp)
    5a64:	6568                	flw	fa0,76(a0)
    5a66:	2072                	lhu	a2,6(s0)
    5a68:	6e45                	lui	t3,0x11
    5a6a:	6d75                	lui	s10,0x1d
    5a6c:	5220                	lw	s0,96(a2)
    5a6e:	7365                	lui	t1,0xffff9
    5a70:	6c75                	lui	s8,0x1d
    5a72:	3a74                	lbu	a3,23(a2)
    5a74:	0020                	addi	s0,sp,8
    5a76:	0000                	unimp
    5a78:	6f52                	flw	ft10,20(sp)
    5a7a:	4420746f          	jal	s0,cebc <_data_lma+0x6f48>
    5a7e:	7665                	lui	a2,0xffff9
    5a80:	6369                	lui	t1,0x1a
    5a82:	2065                	jal	5b2a <_read+0x31a>
    5a84:	7349                	lui	t1,0xffff2
    5a86:	4820                	lw	s0,80(s0)
    5a88:	4255                	li	tp,21
    5a8a:	202e                	lhu	a1,2(s0)
    5a8c:	0000                	unimp
    5a8e:	0000                	unimp
    5a90:	6f52                	flw	ft10,20(sp)
    5a92:	4420746f          	jal	s0,ced4 <_data_lma+0x6f60>
    5a96:	7665                	lui	a2,0xffff9
    5a98:	6369                	lui	t1,0x1a
    5a9a:	2065                	jal	5b42 <_read+0x332>
    5a9c:	7349                	lui	t1,0xffff2
    5a9e:	0020                	addi	s0,sp,8
    5aa0:	726f7453          	0x726f7453
    5aa4:	6761                	lui	a4,0x18
    5aa6:	2e65                	jal	5e5e <scancodeamiga+0xd6>
    5aa8:	0020                	addi	s0,sp,8
    5aaa:	0000                	unimp
    5aac:	7250                	flw	fa2,36(a2)
    5aae:	6e69                	lui	t3,0x1a
    5ab0:	6574                	flw	fa3,76(a0)
    5ab2:	2e72                	lhu	a2,30(a2)
    5ab4:	0020                	addi	s0,sp,8
    5ab6:	0000                	unimp
    5ab8:	7548                	flw	fa0,44(a0)
    5aba:	2e62                	lhu	s0,30(a2)
    5abc:	0020                	addi	s0,sp,8
    5abe:	0000                	unimp
    5ac0:	6e55                	lui	t3,0x15
    5ac2:	776f6e6b          	0x776f6e6b
    5ac6:	2e6e                	lhu	a1,30(a2)
    5ac8:	0020                	addi	s0,sp,8
    5aca:	0000                	unimp
    5acc:	6e45                	lui	t3,0x11
    5ace:	2064                	lbu	s1,6(s0)
    5ad0:	6e45                	lui	t3,0x11
    5ad2:	6d75                	lui	s10,0x1d
    5ad4:	0d2e                	slli	s10,s10,0xb
    5ad6:	0000                	unimp
    5ad8:	6e45                	lui	t3,0x11
    5ada:	6d75                	lui	s10,0x1d
    5adc:	4620                	lw	s0,72(a2)
    5ade:	6961                	lui	s2,0x18
    5ae0:	206c                	lbu	a1,6(s0)
    5ae2:	68746977          	0x68746977
    5ae6:	4520                	lw	s0,72(a0)
    5ae8:	7272                	flw	ft4,60(sp)
    5aea:	4320726f          	jal	tp,cf1c <_data_lma+0x6fa8>
    5aee:	3a65646f          	jal	s0,5be94 <_data_lma+0x55f20>
    5af2:	7825                	lui	a6,0xfffe9
    5af4:	0a0d                	addi	s4,s4,3
    5af6:	0000                	unimp
    5af8:	5355                	li	t1,-11
    5afa:	2042                	lhu	s0,4(s0)
    5afc:	6f50                	flw	fa2,28(a4)
    5afe:	7472                	flw	fs0,60(sp)
    5b00:	4420                	lw	s0,72(s0)
    5b02:	7665                	lui	a2,0xffff9
    5b04:	4f20                	lw	s0,88(a4)
    5b06:	7475                	lui	s0,0xffffd
    5b08:	0d2e                	slli	s10,s10,0xb
    5b0a:	0000                	unimp
    5b0c:	6e49                	lui	t3,0x12
    5b0e:	6564                	flw	fs1,76(a0)
    5b10:	3a78                	lbu	a4,23(a2)
    5b12:	7825                	lui	a6,0xfffe9
    5b14:	0d20                	addi	s0,sp,664
    5b16:	000a                	c.slli	zero,0x2
    5b18:	7542                	flw	fa0,48(sp)
    5b1a:	6666                	flw	fa2,88(sp)
    5b1c:	7265                	lui	tp,0xffff9
    5b1e:	6820                	flw	fs0,80(s0)
    5b20:	6165                	addi	sp,sp,112
    5b22:	2564                	lbu	s1,14(a0)
    5b24:	2078                	lbu	a4,6(s0)
    5b26:	0a0d                	addi	s4,s4,3
    5b28:	0000                	unimp
    5b2a:	0000                	unimp
    5b2c:	7542                	flw	fa0,48(sp)
    5b2e:	6666                	flw	fa2,88(sp)
    5b30:	7265                	lui	tp,0xffff9
    5b32:	7420                	flw	fs0,104(s0)
    5b34:	6961                	lui	s2,0x18
    5b36:	256c                	lbu	a1,14(a0)
    5b38:	2078                	lbu	a4,6(s0)
    5b3a:	0a0d                	addi	s4,s4,3
    5b3c:	0000                	unimp
    5b3e:	0000                	unimp
    5b40:	6e49                	lui	t3,0x12
    5b42:	6574                	flw	fa3,76(a0)
    5b44:	6672                	flw	fa2,28(sp)
    5b46:	6361                	lui	t1,0x18
    5b48:	2065                	jal	5bf0 <_read+0x3e0>
    5b4a:	7974                	flw	fa3,116(a0)
    5b4c:	6570                	flw	fa2,76(a0)
    5b4e:	253a                	lhu	a4,10(a0)
    5b50:	2078                	lbu	a4,6(s0)
    5b52:	0a0d                	addi	s4,s4,3
    5b54:	0000                	unimp
    5b56:	0000                	unimp
    5b58:	654c                	flw	fa1,12(a0)
    5b5a:	3a6e                	lhu	a1,54(a2)
    5b5c:	7825                	lui	a6,0xfffe9
    5b5e:	0d20                	addi	s0,sp,664
    5b60:	000a                	c.slli	zero,0x2
    5b62:	0000                	unimp
    5b64:	6241                	lui	tp,0x10
    5b66:	6f6e                	flw	ft10,216(sp)
    5b68:	6d72                	flw	fs10,28(sp)
    5b6a:	6c61                	lui	s8,0x18
    5b6c:	000d                	c.nop	3
    5b6e:	0000                	unimp
    5b70:	7548                	flw	fa0,44(a0)
    5b72:	2062                	lhu	s0,6(s0)
    5b74:	6e49                	lui	t3,0x12
    5b76:	2074                	lbu	a3,6(s0)
    5b78:	6144                	flw	fs1,4(a0)
    5b7a:	6174                	flw	fa3,68(a0)
    5b7c:	253a                	lhu	a4,10(a0)
    5b7e:	3230                	lbu	a2,3(a2)
    5b80:	0d78                	addi	a4,sp,668
    5b82:	000a                	c.slli	zero,0x2
    5b84:	6544                	flw	fs1,12(a0)
    5b86:	2076                	lhu	a3,6(s0)
    5b88:	65657053          	0x65657053
    5b8c:	3a64                	lbu	s1,23(a2)
    5b8e:	7825                	lui	a6,0xfffe9
    5b90:	0a0d                	addi	s4,s4,3
    5b92:	0000                	unimp
    5b94:	6e45                	lui	t3,0x11
    5b96:	6d75                	lui	s10,0x1d
    5b98:	485f 6275 6544      	0x65446275485f
    5b9e:	6976                	flw	fs2,92(sp)
    5ba0:	000d6563          	bltu	s10,zero,5baa <_read+0x39a>
    5ba4:	5548                	lw	a0,44(a0)
    5ba6:	2042                	lhu	s0,4(s0)
    5ba8:	6f70                	flw	fa2,92(a4)
    5baa:	7472                	flw	fs0,60(sp)
    5bac:	7825                	lui	a6,0xfffe9
    5bae:	6420                	flw	fs0,72(s0)
    5bb0:	7665                	lui	a2,0xffff9
    5bb2:	6369                	lui	t1,0x1a
    5bb4:	2065                	jal	5c5c <_read+0x44c>
    5bb6:	7369                	lui	t1,0xffffa
    5bb8:	4820                	lw	s0,80(s0)
    5bba:	4449                	li	s0,18
    5bbc:	2021                	jal	5bc4 <_read+0x3b4>
    5bbe:	7546                	flw	fa0,112(sp)
    5bc0:	7472                	flw	fs0,60(sp)
    5bc2:	6568                	flw	fa0,76(a0)
    5bc4:	2072                	lhu	a2,6(s0)
    5bc6:	6e45                	lui	t3,0x11
    5bc8:	6d75                	lui	s10,0x1d
    5bca:	0d3a                	slli	s10,s10,0xe
    5bcc:	000a                	c.slli	zero,0x2
    5bce:	0000                	unimp
    5bd0:	0d214b4f          	0xd214b4f
    5bd4:	0000                	unimp
    5bd6:	0000                	unimp
    5bd8:	5548                	lw	a0,44(a0)
    5bda:	2042                	lhu	s0,4(s0)
    5bdc:	6f70                	flw	fa2,92(a4)
    5bde:	7472                	flw	fs0,60(sp)
    5be0:	7825                	lui	a6,0xfffe9
    5be2:	6420                	flw	fs0,72(s0)
    5be4:	7665                	lui	a2,0xffff9
    5be6:	6369                	lui	t1,0x1a
    5be8:	2065                	jal	5c90 <imp_0_lalt+0x8>
    5bea:	7369                	lui	t1,0xffffa
    5bec:	0020                	addi	s0,sp,8
    5bee:	0000                	unimp
    5bf0:	726f7473          	csrrci	s0,0x726,30
    5bf4:	6761                	lui	a4,0x18
    5bf6:	2165                	jal	609e <_data_lma+0x12a>
    5bf8:	000d                	c.nop	3
    5bfa:	0000                	unimp
    5bfc:	7270                	flw	fa2,100(a2)
    5bfe:	6e69                	lui	t3,0x1a
    5c00:	6574                	flw	fa3,76(a0)
    5c02:	2172                	lhu	a2,6(a0)
    5c04:	000d                	c.nop	3
    5c06:	0000                	unimp
    5c08:	6e75                	lui	t3,0x1d
    5c0a:	776f6e6b          	0x776f6e6b
    5c0e:	216e                	lhu	a1,6(a0)
    5c10:	000d                	c.nop	3
    5c12:	0000                	unimp
    5c14:	5548                	lw	a0,44(a0)
    5c16:	2042                	lhu	s0,4(s0)
    5c18:	6f50                	flw	fa2,28(a4)
    5c1a:	7472                	flw	fs0,60(sp)
    5c1c:	7825                	lui	a6,0xfffe9
    5c1e:	4520                	lw	s0,72(a0)
    5c20:	756e                	flw	fa0,248(sp)
    5c22:	206d                	jal	5ccc <imp_0_lgui+0x4>
    5c24:	7245                	lui	tp,0xffff1
    5c26:	2172                	lhu	a2,6(a0)
    5c28:	0a0d                	addi	s4,s4,3
    5c2a:	0000                	unimp
    5c2c:	25f2                	lhu	a2,14(a1)
    5c2e:	0000                	unimp
    5c30:	251e                	lhu	a5,8(a0)
    5c32:	0000                	unimp
    5c34:	26ee                	lhu	a1,14(a3)
    5c36:	0000                	unimp
    5c38:	251e                	lhu	a5,8(a0)
    5c3a:	0000                	unimp
    5c3c:	271a                	lhu	a4,8(a4)
    5c3e:	0000                	unimp
    5c40:	277c                	lbu	a5,14(a4)
    5c42:	0000                	unimp
    5c44:	27b0                	lbu	a2,10(a5)
    5c46:	0000                	unimp
    5c48:	27ba                	lhu	a4,10(a5)
    5c4a:	0000                	unimp
    5c4c:	251e                	lhu	a5,8(a0)
    5c4e:	0000                	unimp
    5c50:	251e                	lhu	a5,8(a0)
    5c52:	0000                	unimp
    5c54:	251e                	lhu	a5,8(a0)
    5c56:	0000                	unimp
    5c58:	251e                	lhu	a5,8(a0)
    5c5a:	0000                	unimp
    5c5c:	27c4                	lbu	s1,12(a5)
    5c5e:	0000                	unimp
    5c60:	27ca                	lhu	a0,12(a5)
    5c62:	0000                	unimp
    5c64:	27ce                	lhu	a1,12(a5)
	...

00005c68 <imp_0_key_array>:
    5c68:	00f6 2000 0008 0000 0600 0000 0000 0000     ... ............
    5c78:	0065 0000 0000 0000 0065 0000 0001 0000     e.......e.......

00005c88 <imp_0_lalt>:
    5c88:	00f4 2000 0001 0000 0002 0000 0000 0000     ... ............
    5c98:	0001 0000 0000 0000 0001 0000 0001 0000     ................

00005ca8 <imp_0_lctrl>:
    5ca8:	00f4 2000 0001 0000 0000 0000 0000 0000     ... ............
    5cb8:	0001 0000 0000 0000 0001 0000 0001 0000     ................

00005cc8 <imp_0_lgui>:
    5cc8:	00f4 2000 0001 0000 0003 0000 0000 0000     ... ............
    5cd8:	0001 0000 0000 0000 0001 0000 0001 0000     ................

00005ce8 <imp_0_lshift>:
    5ce8:	00f4 2000 0001 0000 0001 0000 0000 0000     ... ............
    5cf8:	0001 0000 0000 0000 0001 0000 0001 0000     ................

00005d08 <imp_0_ralt>:
    5d08:	00f4 2000 0001 0000 0006 0000 0000 0000     ... ............
    5d18:	0001 0000 0000 0000 0001 0000 0001 0000     ................

00005d28 <imp_0_rctrl>:
    5d28:	00f4 2000 0001 0000 0004 0000 0000 0000     ... ............
    5d38:	0001 0000 0000 0000 0001 0000 0001 0000     ................

00005d48 <imp_0_rgui>:
    5d48:	00f4 2000 0001 0000 0007 0000 0000 0000     ... ............
    5d58:	0001 0000 0000 0000 0001 0000 0001 0000     ................

00005d68 <imp_0_rshift>:
    5d68:	00f4 2000 0001 0000 0005 0000 0000 0000     ... ............
    5d78:	0001 0000 0000 0000 0001 0000 0001 0000     ................

00005d88 <scancodeamiga>:
    5d88:	0035 011e 021f 0320 0421 0522 0623 0724     5..... .!.".#.$.
    5d98:	0825 0926 0a27 0b2d 0c2e 0d31 0f62 1014     %.&.'.-...1.b...
    5da8:	111a 1208 1315 1417 151c 1618 170c 1812     ................
    5db8:	1913 1a2f 1b30 1d59 1e5a 1f5b 2004 2116     ../.0.Y.Z.[.. .!
    5dc8:	2207 2309 240a 250b 260d 270e 280f 2933     .".#.$.%.&.'.(3)
    5dd8:	2a34 4428 2d5c 2e5d 2f5e 3088 311d 321b     4*(D\-].^/.0.1.2
    5de8:	3306 3419 3505 3611 3710 3836 3885 3937     .3.4.5.6.768.879
    5df8:	3a38 3d5f 3e60 3f61 402c 412a 422b 4358     8:_=`>a?,@*A+BXC
    5e08:	2b9e 4529 464c 4a56 4c52 4d51 4e4f 4f50     .+)ELFVJRLQMONPO
    5e18:	503a 513b 523c 533d 543e 553f 5640 5741     :P;Q<R=S>T?U@VAW
    5e28:	5842 5943 5c54 5d55 5e57 5f45 60e1 61e5     BXCYT\U]W^E_.`.a
    5e38:	6239 63e0 64e2 65e6 66e3 67e7 5f65 3c63     9b.c.d.e.f.ge_c<
    5e48:	6853 0e46 1c47 2c48 3b4a 3f4b 1f4e 494d     ShF.G.H,J;K?N.MI
    5e58:	4b49 5b00 6a00 6b00 6c00 6d00 6e00 6f00     IK.[.j.k.l.m.n.o
    5e68:	7953 7473 6d65 6c43 3a6b 6425 0a0d 0000     SystemClk:%d....
    5e78:	5355 4642 2053 4f48 5453 4b20 204d 6554     USBFS HOST KM Te
    5e88:	7473 000d 4954 334d 4920 696e 2074 4b4f     st..TIM3 Init OK
    5e98:	0d21 0000 5355 4642 2053 6f48 7473 4920     !...USBFS Host I
    5ea8:	696e 0d74 0000 0000 4954 324d 342c 4420     nit.....TIM2,4 D
    5eb8:	6c65 7961 202c 5047 4f49 6120 646e 4d20     elay, GPIO and M
    5ec8:	756f 6573 4920 696e 2074 4b4f 0d21 0000     ouse Init OK!...

00005ed8 <__sf_fake_stderr>:
	...

00005ef8 <__sf_fake_stdin>:
	...

00005f18 <__sf_fake_stdout>:
	...
    5f38:	2d23 2b30 0020 0000 6c68 004c 6665 4567     #-0+ ...hlL.efgE
    5f48:	4746 0000 3130 3332 3534 3736 3938 4241     FG..0123456789AB
    5f58:	4443 4645 0000 0000 3130 3332 3534 3736     CDEF....01234567
    5f68:	3938 6261 6463 6665 0000 0000               89abcdef....
